(dp0
Vstuffed_green_olives
p1
S'olives'
p2
sS'grape_jelly'
p3
g3
sVfloury_potato
p4
S'potatoes'
p5
sVsweet_onions
p6
S'onion'
p7
sVfresh_rosemary_leaves
p8
Vrosemary
p9
sVfrozen_chopped_onions
p10
g7
sS'chat_masala'
p11
S'masala'
p12
sS'mackerel'
p13
g13
sVcooking_oil
p14
Vvegetable_oil
p15
sS'curry_paste'
p16
g16
sVapricot_preserves
p17
g17
sS'tartar_sauce'
p18
g18
sVdiced_pimento
p19
Vdiced_pimentos
p20
sS'raspberry_jam'
p21
g21
sS'snow_peas'
p22
g22
sVmango_juice
p23
Vmango_nectar
p24
sVcanned_chipotle_chiles
p25
S'chipotle_peppers'
p26
sS'mushroom_broth'
p27
g27
sS'pancake_mix'
p28
g28
sS'sticky_rice'
p29
S'sushi_rice'
p30
sS'cooked_bacon'
p31
S'bacon'
p32
sS'minute_tapioca'
p33
S'tapioca'
p34
sVtaco_shell
p35
Vtaco_shells
p36
sVinstant_butterscotch_pudding_mix
p37
S'pudding_mix'
p38
sS'crawfish_tails'
p39
S'crawfish'
p40
sS'cranberry_beans'
p41
S'pinto_beans'
p42
sS'pork_loin_chops'
p43
S'pork_chops'
p44
sS'ground_flax_seeds'
p45
S'flax_seeds'
p46
sVsweet_pickle_relish
p47
S'pickles'
p48
sVfire_-_roasted_tomatoes
p49
g49
sS'pancetta'
p50
g32
sVinstant_yeast
p51
S'yeast'
p52
sS'rye_flour'
p53
g53
sS'baking_powder'
p54
g54
sS'multi_-_grain_bread'
p55
S'bread'
p56
sVlean_stewing_beef
p57
S'beef'
p58
sS'canned_chicken'
p59
S'chicken'
p60
sVlemon_Jell_-_O_gelatin
p61
S'gelatin'
p62
sS'chocolate_chips'
p63
g63
sVrice_vermicelli
p64
g64
sVchili_pepper_flakes
p65
S'dried_chilies'
p66
sS'serrano_chilies'
p67
S'green_chilies'
p68
sS'evaporated_skim_milk'
p69
S'evaporated_milk'
p70
sS'baby_greens'
p71
S'greens'
p72
sS'frozen_cheese_tortellini'
p73
S'cheese_tortellini'
p74
sS'apple_pie_spice'
p75
g75
sVblack_pepper
p76
g76
sVsugar_cubes
p77
g77
sS'flounder_fillets'
p78
S'flounder'
p79
sS'stir_-_fry_sauce'
p80
g80
sVfresh_edible_flowers
p81
g81
sS'oat_bran'
p82
g82
sVactive_dry_yeast
p83
g52
sS'fat_-_free_refried_beans'
p84
S'refried_beans'
p85
sS'figs'
p86
g86
sS'cooked_macaroni'
p87
S'macaroni'
p88
sVmustard_seeds
p89
g89
sVvegetable_stock_powder
p90
S'vegetable_broth'
p91
sVsugar_crystals
p92
S'sugar'
p93
sS'juniper_berries'
p94
g94
sVvanilla_wafer_cookies
p95
S'vanilla_wafers'
p96
sS'caramels'
p97
g97
sVcinnamon_sticks
p98
g98
sVtilapia_fillets
p99
g99
sS'Miracle_Whip_light'
p100
S'Miracle_Whip'
p101
sS'Italian_salad_dressing_mix'
p102
g102
sS'beef_cube_steaks'
p103
S'cube_steaks'
p104
sS'idaho_potatoes'
p105
g5
sVOscar_Mayer_real_bacon_bits
p106
Vbacon_bits
p107
sVsea_bass_fillet
p108
S'bass_fillets'
p109
sVcourgette
p110
Vzucchini
p111
sS'light_sour_cream'
p112
S'sour_cream'
p113
sS'pure_chile_powder'
p114
S'chili_powder'
p115
sVrusset_potato
p116
g5
sS'blackening_seasoning'
p117
S'seasoning'
p118
sS'Kraft_caramels'
p119
g97
sS'garlic_butter'
p120
g120
sS'cherries'
p121
g121
sS'water_chestnuts'
p122
g122
sS'seasoned_stuffing_mix'
p123
g123
sS'fresh_cranberries'
p124
S'cranberries'
p125
sVuncooked_rice
p126
S'rice'
p127
sg32
g32
sVtamarind_pulp
p128
Vtamarind_paste
p129
sVextra_-_large_egg_yolk
p130
Vegg_yolks
p131
sS'millet'
p132
g132
sVHass_avocado
p133
VHass_avocadoes
p134
sS'Rice_Chex'
p135
g135
sS'whipped_topping'
p136
S'whipped_topping'
p137
sS'Gold_Medal_all_-_purpose_flour'
p138
S'flour'
p139
sVfresh_okra
p140
Vokra
p141
sVfresh_tomatoes
p142
S'tomatoes'
p143
sVItalian_sausages
p144
VItalian_sausage
p145
sVyellow_sweet_onion
p146
g146
sVfresh_jalapeno
p147
g68
sVmild_green_chili
p148
g68
sS'ground_beef'
p149
g149
sS'granola_cereal'
p150
g150
sVsweet_pickles
p151
g48
sVoil_-_cured_black_olive
p152
S'black_olives'
p153
sS'minced_beef'
p154
g149
sVfresh_thyme_leave
p155
S'thyme'
p156
sVfine_dry_breadcrumb
p157
S'breadcrumbs'
p158
sS'Rice_Krispies'
p159
S'puffed_rice_cereal'
p160
sVcola_-_flavored_carbonated_beverage
p161
Vcola
p162
sS'galangal'
p163
S'ginger'
p164
sS'lima_beans'
p165
g165
sS'cavatappi_pasta'
p166
g166
sVRed_Delicious_apple
p167
S'apples'
p168
sS'olive_oil'
p169
g169
sVsliced_ripe_olives
p170
g2
sVlasagna_sheet
p171
S'lasagna_noodles'
p172
sVpancakes
p173
g173
sS'crab_boil'
p174
S'crab'
p175
sVsemolina
p176
g176
sVcocktail_onion
p177
Vcocktail_onions
p178
sS'ramps'
p179
g179
sVdried_apricot_halves
p180
Vdried_apricots
p181
sS'pate'
p182
g182
sS'light_soya_sauce'
p183
S'soy_sauce'
p184
sS'veal_chops'
p185
S'veal'
p186
sS'lite_olive_oil'
p187
g169
sVfresh_herb
p188
S'herbs'
p189
sS'turkey_breast'
p190
g190
sVwhole_milk_ricotta_cheese
p191
S'ricotta_cheese'
p192
sS'swordfish_steaks'
p193
S'swordfish'
p194
sVstevia
p195
g195
sS'maple_syrup'
p196
g196
sS'candy_sprinkles'
p197
g197
sS'chow_mein_noodles'
p198
S'noodles'
p199
sS'boneless_beef_cubes'
p200
g104
sS'anchovy_fillets'
p201
S'anchovies'
p202
sS'tomato_soup'
p203
g203
sS'corn_on_the_cob'
p204
S'corn'
p205
sS'frozen_whole_kernel_corn'
p206
g205
sVvanilla_protein_powder
p207
S'protein_powder'
p208
sS'pecan_nuts'
p209
S'pecans'
p210
sVhot_dog_bun
p211
Vhot_dog_buns
p212
sVprune
p213
S'prunes'
p214
sVpumpkin_puree
p215
g215
sVcanned_tomato
p216
Vcanned_tomatoes
p217
sVdecorative_candies
p218
g197
sS'shiso_leaves'
p219
g219
sS'herbes_de_provence'
p220
g189
sVranch_dressing_mix
p221
g221
sVfresh_corn_kernels
p222
g205
sS'bone_-_in_ham'
p223
S'ham'
p224
sVbass_fillet
p225
g109
sS'epazote'
p226
g226
sS'frozen_green_beans'
p227
S'green_beans'
p228
sVstuffed_green_olive
p229
g2
sS'Crisco'
p230
S'shortening'
p231
sVfresh_coriander_leaves
p232
Vcilantro
p233
sS'light_rum'
p234
S'rum'
p235
sVhamburger_bun
p236
S'hamburger_buns'
p237
sVpeppermint_extract
p238
g238
sS'powdered_drink_mix'
p239
g239
sVFrench_baguette
p240
S'baguette'
p241
sVquick_-_cooking_oats
p242
S'oats'
p243
sS'coleslaw_dressing'
p244
g244
sS'Quaker_Oats'
p245
g243
sS'dried_chipotle_powder'
p246
g26
sS'israeli_couscous'
p247
S'couscous'
p248
sS'lamb_stock'
p249
S'stock'
p250
sS'bean_curd'
p251
g251
sVgolden_brown_sugar
p252
S'brown_sugar'
p253
sS'feta_cheese_with_dried_basil_and_tomato'
p254
S'feta'
p255
sVcrushed_tomatoes
p256
Vdiced_tomatoes
p257
sS'chervil'
p258
g258
sVbaby_arugula
p259
Varugula
p260
sVbroiler_-_fryer_chicken
p261
g60
sVchicken_gizzard
p262
Vchicken_gizzards
p263
sS'blue_cornmeal'
p264
S'cornmeal'
p265
sS'toasted_sesame_seeds'
p266
S'sesame'
p267
sS'large_marshmallows'
p268
S'marshmallows'
p269
sVboneless_beef_round_steak
p270
S'beef_steaks'
p271
sS'fresh_bean_sprouts'
p272
S'bean_sprouts'
p273
sS'fat_-_free_cheddar_cheese'
p274
S'cheddar_cheese'
p275
sS'pasta'
p276
g276
sVJiffy_corn_muffin_mix
p277
Vcornbread_mix
p278
sS'Chinese_sausage'
p279
S'sausage'
p280
sVfresh_flat_-_leaf_parsley
p281
Vparsley
p282
sS'red_beans'
p283
S'kidney_beans'
p284
sVsugar_snap_peas
p285
g22
sVconfectioners'_sugar
p286
Vpowdered_sugar
p287
sVhot_chili_pepper
p288
g68
sS'light_corn_syrup'
p289
S'corn_syrup'
p290
sVunbaked_9_-_inch_pie_crust
p291
S'pie_crusts'
p292
sg145
g145
sS'skinless_salmon_fillet'
p293
S'salmon_fillets'
p294
sVyellow_onion
p295
g7
sS'rice_vinegar'
p296
g296
sS'neufchatel_cheese'
p297
g297
sVfresh_coriander
p298
g233
sS'fresh_fruit'
p299
S'mixed_fruit'
p300
sS'pork_rib_chops'
p301
S'pork_ribs'
p302
sVseason_salt
p303
g118
sVunsweetened_almond_milk
p304
S'almond_milk'
p305
sVdehydrated_onion
p306
Vonion_flakes
p307
sS'dried_red_lentils'
p308
S'lentils'
p309
sS'vanilla_sugar'
p310
g310
sVcelery_seed
p311
S'celery_seeds'
p312
sVcandied_fruit
p313
g313
sS'cake_mix'
p314
g314
sVoleo
p315
Vmargarine
p316
sVcrackers
p317
g317
sVdried_ginger
p318
Vground_ginger
p319
sS'cornbread_stuffing_mix'
p320
g123
sVextra_-_large_eggs
p321
Veggs
p322
sS'orange_food_coloring'
p323
g323
sS'unbleached_all_-_purpose_flour'
p324
g139
sVHeath_candy_bars
p325
g325
sS'vodka'
p326
g326
sVchayote
p327
Vchayotes
p328
sVdried_tart_cherry
p329
Vdried_cherries
p330
sS'Orange_sherbet'
p331
g331
sS'anise'
p332
g332
sg70
g70
sS'frozen_lima_beans'
p333
g165
sVcrepes
p334
g334
sVcooked_long_-_grain_brown_rice
p335
g127
sVtomato_ketchup
p336
Vketchup
p337
sVitalian_sweet_sausage
p338
g145
sS'chocolate_fudge_topping'
p339
g339
sVfrozen_okra
p340
g141
sVmandarin_orange_section
p341
S'mandarin_oranges'
p342
sVskinless_chicken_breasts
p343
S'chicken_breasts'
p344
sVfat_free_sour_cream
p345
g113
sVItalian_herb_seasoning
p346
Vitalian_seasoning
p347
sS'small_pretzels'
p348
S'pretzels'
p349
sS'focaccia_bread'
p350
g350
sVMature_cheddar_cheese
p351
g275
sVdried_ancho_chiles
p352
g66
sVsaffron_thread
p353
S'saffron'
p354
sVcandied_red_cherries
p355
Vcandied_cherries
p356
sS'racks_of_lamb'
p357
S'lamb'
p358
sVwhole_milk
p359
S'milk'
p360
sS'borax'
p361
g361
sVKraft_Shredded_Sharp_Cheddar_Cheese
p362
g275
sVnuts
p363
g363
sVreal_maple_syrup
p364
g196
sS'cottage_cheese'
p365
g365
sVbuns
p366
S'rolls'
p367
sVwhite_mushrooms
p368
S'mushrooms'
p369
sS'unsweetened_flavored_drink_mix'
p370
g239
sVboneless_skinless_chicken_breasts
p371
g344
sS'ketjap_manis'
p372
g372
sVEqual_sugar_substitute
p373
VSplenda_granular
p374
sS'dried_shrimp'
p375
g375
sVbell_pepper
p376
Vpimientos
p377
sVparsnips
p378
g378
sS'semisweet_vegan_chocolate_chips'
p379
g63
sVtahini_paste
p380
Vtahini
p381
sS'dried_kasha'
p382
g382
sS'garam_masala_powder'
p383
g383
sVgrouper_fillets
p384
g384
sS'pimento_stuffed_olives'
p385
g2
sS'fat'
p386
S'lard'
p387
sVdark_cocoa
p388
S'cocoa'
p389
sS'medium_egg_noodles'
p390
g199
sS'salsa'
p391
S'chili_sauce'
p392
sVinstant_chicken_bouillon_granules
p393
Vchicken_soup_base
p394
sVFrench_roll
p395
g367
sS'jaggery'
p396
g396
sS'pigeon_peas'
p397
g397
sVcroissant
p398
S'croissants'
p399
sVnonstick_cooking_spray
p400
Vcooking_spray
p401
sVpound_cake
p402
Vpoundcake
p403
sVphyllo_pastry_sheets
p404
Vphyllo_dough
p405
sS'smoked_trout'
p406
g406
sVlettuce_leaves
p407
S'lettuce'
p408
sVchili_-_garlic_sauce
p409
g409
sS'lobsters'
p410
g410
sVSwanson_chicken_broth
p411
S'chicken_broth'
p412
sVflat_leaf_parsley
p413
g282
sS'unflavored_gelatin'
p414
g62
sS'pappardelle_pasta'
p415
g415
sVcountry_bread
p416
g56
sVunbaked_pie_shell
p417
g292
sVoysters
p418
g418
sVendives
p419
S'endive'
p420
sVraspberry_preserves
p421
g21
sVreduced_-_sodium_chicken_broth
p422
g250
sS'orange_juice'
p423
g423
sVItalian_turkey_sausage_links
p424
S'turkey_sausage'
p425
sVarugula_leaves
p426
g260
sVfrozen_unsweetened_raspberries
p427
S'raspberries'
p428
sVbroad_egg_noodle
p429
g199
sVchocolate_bars
p430
S'chocolate'
p431
sS'ground_veal'
p432
g432
sS'sun_-_dried_tomatoes_packed_in_oil'
p433
S'dried_tomatoes'
p434
sVgraham_crackers
p435
g435
sS'soba_noodles'
p436
g436
sVAngostura_bitters
p437
Vbitters
p438
sVraw_carrots
p439
S'carrots'
p440
sS'elderflower_liqueur'
p441
S'liqueur'
p442
sS'white_corn_tortilla'
p443
Vtortilla_chips
p444
sVhamburger_meat
p445
g149
sg284
g284
sVplantains
p446
g446
sVkirby_cucumber
p447
S'cucumbers'
p448
sg109
g109
sS'leg_of_lamb'
p449
g449
sVreduced_-_fat_sour_cream
p450
g113
sS'cream_of_coconut'
p451
g451
sVpeach_preserves
p452
g452
sS'dried_coconut'
p453
S'coconut'
p454
sg68
g68
sVpork_butt
p455
S'pork_shoulder'
p456
sVMcCormick's_Montreal_Brand_steak_seasoning
p457
g118
sVfig
p458
g86
sS'savory'
p459
g459
sVdill_sprigs
p460
S'dill'
p461
sS'cooked_linguine'
p462
S'linguine'
p463
sVvegan_margarine
p464
g316
sVpear_juice
p465
Vpear_nectar
p466
sVbulk_pork_sausage
p467
g280
sS'coffee'
p468
g468
sVtable_salt
p469
S'salt'
p470
sVFontina_cheese
p471
Vfontina
p472
sS'liquid_pectin'
p473
S'pectin'
p474
sS'piquillo_peppers'
p475
S'red_peppers'
p476
sVcooked_egg_noodles
p477
g199
sVsauvignon_blanc_wine
p478
S'white_wine'
p479
sS'unsweetened_pineapple_juice'
p480
S'pineapple_juice'
p481
sS'candied_pineapple'
p482
g482
sS'multigrain_bread'
p483
g56
sVfresh_pineapple_chunk
p484
Vfresh_pineapple
p485
sVhalf_-_and_-_half
p486
g486
sVsolid_-_pack_pumpkin
p487
S'pumpkin'
p488
sg56
g56
sS'frozen_fruit'
p489
g300
sVwooden_skewers
p490
Vskewers
p491
sS'dried_arbol_chiles'
p492
g66
sVmeat
p493
g58
sVbutter_-_flavored_cooking_spray
p494
g401
sVdried_white_beans
p495
S'navy_beans'
p496
sg5
g5
sVgingerroot
p497
g164
sS'baby_lima_beans'
p498
g165
sS'chuck'
p499
g499
sVdry_onion_soup_mix
p500
Vonion_soup_mix
p501
sS'Grey_Poupon'
p502
g502
sVunsweetened_crushed_canned_pineapple
p503
S'pineapple'
p504
sVrefrigerated_biscuit
p505
S'refrigerated_biscuits'
p506
sS'tri_-_color_spiral_pasta'
p507
g276
sVvinaigrette_dressing
p508
S'Italian_dressing'
p509
sg305
g305
sg9
g9
sS'cornbread'
p510
g510
sVsausage_links
p511
g280
sS'orange_soda'
p512
g512
sVcelery_heart
p513
S'celery'
p514
sS'allspice'
p515
g515
sS'lean_ground_chicken'
p516
S'ground_chicken'
p517
sVsugar_substitute
p518
g374
sS'frozen_meatballs'
p519
g519
sS'balsamic_vinegar'
p520
g520
sS'emmenthaler_cheese'
p521
S'cheese'
p522
sVwaffle
p523
Vwaffles
p524
sVaged_cheddar_cheese
p525
g275
sVcauliflower_floret
p526
S'cauliflower'
p527
sVgrapefruits
p528
S'pink_grapefruit'
p529
sVturnip
p530
S'turnips'
p531
sVfresh_onions
p532
g7
sS'cubanelle_peppers'
p533
g476
sVdried_red_pepper
p534
Valeppo_pepper
p535
sVyellow_peppers
p536
Vyellow_pepper
p537
sS'dried_pinto_beans'
p538
g42
sVblack_sesame_seed
p539
g267
sVextract
p540
g540
sVchicken_wings
p541
g541
sS'pasilla_chiles'
p542
g66
sS'bran_flakes'
p543
g543
sVhot_Italian_sausage
p544
g145
sS'full_-_fat_milk'
p545
g360
sVcoconut_cream
p546
S'coconut_milk'
p547
sS'genoa_salami'
p548
S'salami'
p549
sVcoriander_sprigs
p550
g233
sS'green_chili_salsa'
p551
g392
sS'burdock_root'
p552
g552
sS'butter_flavor_shortening'
p553
g231
sS'snow_pea_pods'
p554
g22
sS'shrimp_paste'
p555
g555
sVcoconut_rum
p556
g556
sVbeef_hot_dogs
p557
Vfranks
p558
sS'chicken_-_flavored_ramen_noodles'
p559
S'ramen_noodles'
p560
sS'canned_beef_broth'
p561
S'beef_broth'
p562
sS'double_-_acting_baking_powder'
p563
g54
sS'sesame_oil'
p564
g564
sVbutter_beans
p565
g165
sS'Asian_chili_sauce'
p566
g392
sS'Hidden_Valley_Original_Ranch_Dressing'
p567
S'ranch_dressing'
p568
sVchili_paste_with_garlic
p569
g409
sS'gingersnap_crumbs'
p570
S'cookie_crumbs'
p571
sS'chocolate_cookies'
p572
g572
sS'black_forest_ham'
p573
g573
sVbacon_grease
p574
Vbacon_drippings
p575
sS'roasted_sunflower_seeds'
p576
S'sunflower_seeds'
p577
sS'shredded_wheat_cereal'
p578
g578
sVred_lentil
p579
g309
sVgrapes
p580
g580
sS'split_peas'
p581
g581
sVsemolina_flour
p582
g176
sVcube_steak
p583
g104
sS'Oreo_cookie_crumbs'
p584
g584
sS'unsweetened_apple_juice'
p585
S'apple_juice'
p586
sS'beau_monde_seasoning'
p587
g118
sVserrano_peppers
p588
g68
sVfrozen_tater_tots
p589
Vtater_tots
p590
sS'annatto_seeds'
p591
g591
sVportabella_mushroom
p592
S'portabella_mushrooms'
p593
sVboneless_pork_loin_roast
p594
Vboneless_pork_loin
p595
sVcream_-_filled_chocolate_sandwich_cookies
p596
Vchocolate_sandwich_style_cookies
p597
sVcookie_cutters
p598
g598
sVgarbanzo_beans
p599
Vchickpeas
p600
sS'haddock_fillets'
p601
g601
sS'longhorn_cheese'
p602
g522
sVsemi_-_sweet_chocolate_baking_square
p603
Vsemisweet_chocolate
p604
sVchili_beans
p605
g284
sS'stewing_chicken'
p606
g60
sg275
g275
sVlow_-_fat_plain_yogurt
p607
S'yogurt'
p608
sVLipton_Onion_Soup_Mix
p609
g501
sS'head_broccoli'
p610
S'broccoli'
p611
sS'real_vanilla_extract'
p612
S'vanilla_extract'
p613
sVOscar_Mayer_Smoked_Ham
p614
Vsmoked_ham
p615
sVrisotto_rice
p616
Varborio_rice
p617
sVlime_slice
p618
S'lime'
p619
sVground_oregano
p620
S'oregano'
p621
sVof_fresh_mint
p622
S'mint'
p623
sS'small_mushrooms'
p624
g369
sS'dry_bread_cubes'
p625
S'bread_cubes'
p626
sg408
g408
sVlime_,_juice_of
p627
S'lime_juice'
p628
sS'grainy_mustard'
p629
S'mustard'
p630
sS'crab_boil_seasoning'
p631
g118
sVdried_parsley_flakes
p632
g282
sVpepperoncini_peppers
p633
g633
sS'tuna'
p634
g634
sVvegetable_shortening
p635
g231
sS'mint_sprigs'
p636
g623
sVcilantro_stems
p637
g233
sS'boneless_pork'
p638
S'pork'
p639
sVgelatin_powder
p640
g62
sS'dry_white_vermouth'
p641
S'vermouth'
p642
sS'spinach'
p643
g643
sS'fat_free_cream_cheese'
p644
S'cream_cheese'
p645
sS'cardamom_powder'
p646
S'cardamom'
p647
sVhabanero_pepper
p648
Vhabaneros
p649
sVfresh_parsley_sprigs
p650
g282
sS'white_asparagus'
p651
S'asparagus'
p652
sS'strawberry_yogurt'
p653
g653
sS'cherry_juice'
p654
g654
sS'instant_couscous'
p655
g248
sS'romaine_leaves'
p656
g408
sS'pie_dough'
p657
g657
sS'center_-_cut_bacon'
p658
g32
sVStilton_cheese
p659
S'blue_cheese'
p660
sVpowdered_fruit_pectin
p661
g474
sVHershey_Bar
p662
g431
sS'kiwi'
p663
g663
sVflat_bread
p664
S'pita_bread'
p665
sVchicken_leg_quarter
p666
S'chicken_legs'
p667
sVclam_broth
p668
S'clam_juice'
p669
sVsweet_butter
p670
S'butter'
p671
sVpickle_juice
p672
g672
sVfennel_bulbs
p673
S'fennel'
p674
sVred_-_hot_candies
p675
Vred_cinnamon_candies
p676
sS'cornflour'
p677
g677
sS'chocolate_cake_mix'
p678
g314
sVlavender
p679
g679
sS'green_lentils'
p680
g309
sS'cereal'
p681
g681
sS'garlic_chives'
p682
S'chives'
p683
sVsaffron_threads
p684
g354
sVSplenda_sugar_substitute
p685
g374
sVTia_Maria
p686
VKahlua
p687
sS'Hidden_Valley_Original_Ranch_Seasoning_Mix'
p688
g688
sVKRAFT_2_%_Milk_Shredded_Mozzarella_Cheese
p689
S'mozzarella_cheese'
p690
sVdried_hot_red_chili_peppers
p691
g66
sVseafood_stock
p692
Vfish_stock
p693
sVFrench_mustard
p694
VDijon_mustard
p695
sS'challah'
p696
g696
sVegg_white
p697
Vegg_whites
p698
sS'sorghum_flour'
p699
g699
sVHershey_chocolate_kiss
p700
VHershey_chocolate_kisses
p701
sVself_raising_flour
p702
g702
sS'vanilla_bean'
p703
g703
sS'almond_powder'
p704
S'almond_flour'
p705
sS'mixed_spice'
p706
g706
sVfresh_ground_black_pepper
p707
g76
sS'gochujang'
p708
g708
sS'baby_corn'
p709
g709
sVbrown_onions
p710
g7
sVMinute_brown_rice
p711
g127
sVfresh_nutmeg
p712
S'nutmeg'
p713
sS'ground_walnuts'
p714
S'walnuts'
p715
sVdried_hot_red_chili_pepper
p716
g66
sS'wheat_flour'
p717
g717
sS'Curacao'
p718
g442
sS'dried_lentils'
p719
g309
sS'frozen_pound_cake'
p720
g720
sS'Pisco'
p721
g721
sS'peppercorns'
p722
g722
sVbrown_button_mushrooms
p723
g369
sVcanned_jalapeno_pepper
p724
g68
sS'almond_oil'
p725
g725
sS'vanilla_bean_paste'
p726
g703
sS'hazelnuts'
p727
g727
sVdried_bay_leaf
p728
S'bay_leaf'
p729
sVdried_red_chilies
p730
g66
sS'pastry_cream'
p731
S'cream'
p732
sS'green_salad'
p733
g733
sS'chili_with_beans'
p734
g734
sg403
g403
sVroasted_sweet_red_pepper
p735
S'roasted_peppers'
p736
sVspicy_sausage
p737
g280
sVrock_salt
p738
g470
sS'millet_flour'
p739
g739
sS'powdered_milk'
p740
g740
sS'low_sodium_vegetable_broth'
p741
g91
sVground_pepper
p742
g76
sVlobster_tails
p743
g410
sVspaghetti_noodles
p744
S'spaghetti'
p745
sS'anchovy_paste'
p746
g746
sVfresh_goat_cheese
p747
g747
sS'pepper_rings'
p748
g476
sg181
g181
sS'dry_vermouth'
p749
g749
sVlow_-_fat_cheddar_cheese
p750
g275
sS'short_-_grain_brown_rice'
p751
g127
sVGranny_Smith_apples
p752
g168
sS'Old_Bay_Seasoning'
p753
g118
sS'thick_slab_bacon'
p754
g32
sg506
g506
sS'boneless_lamb'
p755
g358
sS'gravy'
p756
g756
sS'plastic_wrap'
p757
g757
sS'toasted_sesame_oil'
p758
g564
sS'nonpareils'
p759
g197
sVsmooth_peanut_butter
p760
Vpeanut_butter
p761
sS'grenadine'
p762
g762
sVbasil_pesto
p763
Vpesto_sauce
p764
sVTabasco_sauce
p765
g392
sVKRAFT_Mexican_Style_Shredded_Four_Cheese_with_a_Touch_of_PHILADELPHIA
p766
S'mexican_cheese'
p767
sS'blue_curacao'
p768
g442
sVshallots
p769
g769
sVwax_beans
p770
g770
sVpeppercorn
p771
g722
sVwatercress
p772
g772
sVranch_style_beans
p773
g773
sS'sirloin_steaks'
p774
S'beef_sirloin'
p775
sVtomatoes_in_puree
p776
g776
sVpasilla_chile
p777
g66
sVred_pepper
p778
g476
sVdried_ancho_chile
p779
g66
sS'ditalini'
p780
g780
sS'cubed_ham'
p781
g224
sVcubanelle_pepper
p782
g476
sS'roast'
p783
g783
sS'jalapenos'
p784
g68
sS'dry_pectin'
p785
g474
sVdried_currants
p786
g786
sS'Italian_cheese'
p787
g522
sg504
g504
sS'chicken_bouillon'
p788
g412
sg693
g693
sS'scotch'
p789
S'whiskey'
p790
sS'creole_seasoning'
p791
g118
sg444
g444
sVfrozen_peas_and_carrot
p792
Vfrozen_peas_and_carrots
p793
sVfresh_ground_white_pepper
p794
g722
sS'matzo_cake_meal'
p795
g795
sVarmagnac
p796
S'brandy'
p797
sVcoarse_sea_salt
p798
g470
sS'lowfat_mozzarella_cheese'
p799
g690
sVvanilla_instant_pudding_mix
p800
g38
sS'tequila'
p801
g801
sVsage
p802
g802
sVbeef_short_ribs
p803
g803
sS'melba_toast'
p804
g804
sVshortbread_cookie
p805
Vshortbread_cookies
p806
sVFrench_fried_onion_rings
p807
S'fried_onions'
p808
sg674
g674
sVSpanish_onions
p809
g7
sVpuff_pastry_sheets
p810
Vpuff_pastry
p811
sS'American_cheese'
p812
g812
sVicing
p813
S'ice'
p814
sS'chocolate_cake'
p815
g815
sVyellow_split_peas
p816
g581
sS'toast'
p817
g817
sVblack_walnut
p818
g715
sS'gemelli_pasta'
p819
g276
sg577
g577
sVunbaked_9_-_inch_pie_shell
p820
g292
sS'panko_breadcrumbs'
p821
g158
sVcandied_lemon_peel
p822
S'mixed_peel'
p823
sS'capellini'
p824
g824
sS'ground_cardamom'
p825
g647
sVfrozen_lemonade_concentrate
p826
S'lemonade'
p827
sg93
g93
sg514
g514
sVboneless_sirloin_steak
p828
g775
sS'country_-_style_boneless_pork_ribs'
p829
g302
sS'cashews'
p830
g830
sS'porridge_oats'
p831
g243
sS'chestnut_mushrooms'
p832
g369
sS'malt_drink_powder'
p833
g833
sVFrench_style_green_beans
p834
g228
sg127
g127
sVdried_tarragon_leaves
p835
Vtarragon
p836
sS'rice_milk'
p837
g837
sVgreen_capsicum
p838
S'green_peppers'
p839
sS"I_Can't_Believe_It's_Not_Butter"
p840
g316
sVnatural_yoghurt
p841
g608
sS'sour_milk'
p842
g360
sVfresh_Italian_parsley
p843
g282
sVchicken_seasoning
p844
g118
sS'Cool_Whip_Free'
p845
S'Cool_Whip'
p846
sS'fudge_brownie_mix'
p847
S'brownie_mix'
p848
sVpepitas
p849
g849
sVboneless_sirloin_steaks
p850
g775
sVred_grapes
p851
g580
sVwatermelon
p852
g852
sVGrey_Poupon_Dijon_Mustard
p853
g695
sVreduced_-_calorie_mayonnaise
p854
Vlight_mayonnaise
p855
sS'orange_,_zest_of'
p856
S'orange_zest'
p857
sVgarlic_-_infused_olive_oil
p858
Vgarlic_oil
p859
sVdry_sherry
p860
g860
sVrelish
p861
g48
sVcayenne_pepper_sauce
p862
g392
sVsoda_crackers
p863
Vsaltines
p864
sVsoya_sauce
p865
g184
sg72
g72
sVyellow_sweet_peppers
p866
g537
sVpretzel
p867
g349
sVrutabagas
p868
g868
sS'toasted_hazelnuts'
p869
g727
sS'black_coffee'
p870
g468
sS'limes_,_juice_and_zest_of'
p871
g628
sVpecan_pieces
p872
g210
sVorange_bell_peppers
p873
Vorange_bell_pepper
p874
sVred_pepper_sauce
p875
g392
sS'rose_water'
p876
g876
sS'colored_crystal_sugar'
p877
g93
sVdry_bread
p878
g56
sVlive_lobster
p879
g410
sS'chicken_gravy'
p880
g880
sS'grape_juice'
p881
g881
sS'Applejack'
p882
g882
sS'vegan_mayonnaise'
p883
g883
sVgingersnap_cookie
p884
Vgingersnaps
p885
sVbaby_back_ribs
p886
g886
sS'liquor'
p887
g887
sVfresh_thyme_sprigs
p888
g156
sVbay_leaves
p889
g729
sS'fresh_green_beans'
p890
g228
sS'raw_honey'
p891
S'honey'
p892
sVchopped_tomato
p893
g257
sVhazelnut_-_flavored_liqueur
p894
g442
sVM_&_M'
p895
VM_&_M's
p896
sVtea_bags
p897
S'tea'
p898
sS'quinoa_flour'
p899
g899
sVbutter_flavored_cracker
p900
Vbutter_flavored_crackers
p901
sS'fat_free_mozzarella_cheese'
p902
g690
sVBourbon
p903
g903
sVOSCAR_MAYER_Bacon
p904
g32
sVsoft_silken_tofu
p905
S'tofu'
p906
sS'mangoes'
p907
g907
sVsmall_mushroom
p908
g369
sVcoarse_black_pepper
p909
g76
sVgolden_delicious_apple
p910
g168
sVswiss_chard
p911
g911
sS'wakame_seaweed'
p912
g912
sVdinner_roll
p913
g367
sVcrispy_rice_cereal
p914
g160
sVicing_sugar
p915
g287
sVroasted_sesame_seeds
p916
g267
sS'whipped_dessert_topping_mix'
p917
g917
sVcoriander_powder
p918
Vground_coriander
p919
sVmaple_extract
p920
g920
sVpeppermint_candies
p921
g921
sVpastry_for_single_-_crust_pie
p922
g292
sVlemon_peel
p923
S'lemon_zest'
p924
sg168
g168
sVyellow_squash
p925
g111
sS'roasted_cashews'
p926
g830
sVstevia_powder
p927
g374
sVboneless_chicken
p928
g344
sS'coffee_-_flavored_liqueur'
p929
g442
sS'long_grain_rice'
p930
g127
sVgouda_cheese
p931
g931
sS'powdered_coffee_creamer'
p932
S'coffee_creamer'
p933
sS'whole_trout'
p934
S'trout'
p935
sVveggie_burgers
p936
g936
sVCheez_Whiz
p937
g937
sS'curry_powder'
p938
g938
sVwhite_shoepeg_corn
p939
g205
sVpork_sausage_links
p940
g280
sg224
g224
sVred_apple
p941
g168
sS'cooked_ground_beef'
p942
g149
sS'eggnog'
p943
g943
sS'reduced_-_fat_Mexican_cheese_blend'
p944
g767
sVwhole_nutmegs
p945
g713
sS'jelly'
p946
g946
sS'boneless_pork_shoulder'
p947
g456
sVpan_dripping
p948
g387
sS'cake_flour'
p949
g139
sS'winter_squash'
p950
g950
sVdry_white_wine
p951
g479
sS'farmer_cheese'
p952
g952
sVHeinz_Chili_Sauce
p953
g392
sVChardonnay_wine
p954
g479
sS'ginger_ale'
p955
g955
sVfresh_jalapeno_peppers
p956
g68
sS'guava_nectar'
p957
g957
sg104
g104
sVwhite_baking_chocolate
p958
g958
sVpickling_salt
p959
Vpickling_spices
p960
sVsteaks
p961
g271
sS'lemon_cake_mix'
p962
g314
sVgarlic_-_flavored_olive_oil
p963
g859
sVtuna_in_vegetable_oil
p964
S'canned_tuna'
p965
sS'peach_nectar'
p966
g966
sVrich_chicken_broth
p967
g250
sVcajun_spices
p968
g118
sS'fleur_de_sel'
p969
g470
sS'ice_cream'
p970
g970
sVbeetroot
p971
S'beets'
p972
sVmushroom_soup
p973
S'mushroom_soup'
p974
sS'manila_clams'
p975
S'clams'
p976
sS'mizuna'
p977
g977
sg58
g58
sS'dried_lavender'
p978
g978
sVteriyaki_sauce
p979
g979
sg676
g676
sg282
g282
sVfresh_dill_leaves
p980
g461
sS'beer'
p981
g981
sS'reduced_-_fat_vanilla_wafers'
p982
g96
sVice_water
p983
S'water'
p984
sVhash_brown
p985
S'hash_browns'
p986
sVbasil
p987
g987
sVstrawberry_jam
p988
g988
sg101
S'Miracle_Whip'
p989
sS'reduced_-_calorie_whipped_topping'
p990
g136
sg125
g125
sS'peppercorn_ranch_dressing'
p991
g568
sS'kernel_corn'
p992
g205
sVmushroom
p993
g369
sVjellied_cranberry_sauce
p994
Vcranberry_sauce
p995
sVcherry_pepper
p996
Vcherry_peppers
p997
sS'kumara'
p998
S'yams'
p999
sVliquid_smoke_flavoring
p1000
Vliquid_smoke
p1001
sVdried_tart_cherries
p1002
g330
sS'rigatoni_pasta'
p1003
g1003
sVstrong_black_coffee
p1004
g468
sS'graham_wafer_crumbs'
p1005
g571
sVbeef_mince
p1006
g149
sVchile
p1007
S'chilies'
p1008
sVextra_firm_tofu
p1009
g906
sVchili
p1010
g1008
sS'stale_bread'
p1011
g56
sS'sweet_vermouth'
p1012
g1012
sVred_sweet_bell_peppers
p1013
g476
sVgreat_northern_bean
p1014
g496
sVfrozen_waffle
p1015
Vfrozen_waffles
p1016
sS'mustard_oil'
p1017
g1017
sS'fresh_raspberries'
p1018
g428
sVfresh_asparagus
p1019
g652
sVcracker
p1020
g317
sVCarnation_Evaporated_Milk
p1021
g70
sg271
g271
sVtoothpick
p1022
Vtoothpicks
p1023
sS'rice_paper'
p1024
g1024
sVred_chili_peppers
p1025
S'red_chilies'
p1026
sVdried_funghi_porcini
p1027
S'dried_mushrooms'
p1028
sS'flank_steaks'
p1029
g271
sS'wide_egg_noodles'
p1030
g199
sS'peppermint_oil'
p1031
g1031
sS'minced_ginger'
p1032
g164
sS'red_Thai_chile'
p1033
g1026
sVChinese_wine
p1034
Vrice_wine
p1035
sVvanilla_beans
p1036
g703
sVchicken_livers
p1037
g1037
sVlow_-_fat_mayonnaise
p1038
g855
sS'cooked_wild_rice'
p1039
g127
sS'fruit_snacks'
p1040
g1040
sVbroth
p1041
g250
sS'Kraft_Shredded_Monterey_Jack_Cheese'
p1042
S'monterey_jack_cheese'
p1043
sVnew_potato
p1044
g5
sVmixed_mushrooms
p1045
g369
sVfresh_white_mushrooms
p1046
g369
sVEnglish_muffins
p1047
g1047
sVfrozen_blackberrie
p1048
S'blackberries'
p1049
sVfuji_apples
p1050
g168
sVsmoked_paprika
p1051
S'paprika'
p1052
sVsmall_curd_cottage_cheese
p1053
g365
sS'non_-_dairy_whipped_topping'
p1054
g136
sVred_kidney_beans
p1055
g284
sVblack_truffle
p1056
Vblack_truffles
p1057
sVcanned_red_kidney_beans
p1058
g284
sS'creme_de_cassis'
p1059
g1059
sVdried_tarragon
p1060
g836
sS'cooked_pork'
p1061
g639
sVbutter_lettuce_leaves
p1062
g408
sS'fava_beans'
p1063
g1063
sVcanned_corn
p1064
g205
sS'pizza_sauce'
p1065
g1065
sS'fenugreek_seeds'
p1066
g1066
sVhot_pepper_sauce
p1067
g392
sVpapayas
p1068
g1068
sS'currant_jelly'
p1069
g946
sVred_jalapeno_chiles
p1070
g1026
sVfrozen_broccoli_cuts
p1071
Vfrozen_broccoli
p1072
sVmaple_flavoring
p1073
g920
sVtop_sirloin_steak
p1074
g775
sVdried_plums
p1075
g214
sS'madeira_wine'
p1076
g1076
sS'taco_seasoning'
p1077
g118
sVwhole_grain_Dijon_mustard
p1078
g695
sS'pomegranate_molasses'
p1079
S'molasses'
p1080
sVpapaya
p1081
g1068
sS'bouquet_garni'
p1082
g1082
sVunsweetened_flaked_coconut
p1083
g454
sVbasil_leaves
p1084
g987
sS'canned_peaches'
p1085
S'peaches'
p1086
sS'sugar_-_free_instant_vanilla_pudding_mix'
p1087
g38
sVbrazil_nuts
p1088
g1088
sS'ham_slices'
p1089
g224
sS'chicken_breast_halves'
p1090
g344
sVlebanese_cucumbers
p1091
g448
sS'passata'
p1092
g1092
sVshimeji_mushroom
p1093
g369
sS'lemon_yogurt'
p1094
g1094
sVfrozen_cut_green_beans
p1095
g228
sVsemisweet_chocolate_morsels
p1096
g63
sVskinless_chicken_breast_halves
p1097
g344
sS'plum_tomatoes'
p1098
g143
sS'solid_pack_pumpkin'
p1099
g488
sVchocolate_candy_bars
p1100
g431
sS'green_chili_sauce'
p1101
g392
sVmaraschino_cherry_juice
p1102
g654
sS'sirloin_tip_roast'
p1103
g775
sS'fresh_mozzarella_balls'
p1104
g690
sVpork_&_beans
p1105
Vpork_and_beans
p1106
sVhoney_dijon_mustard
p1107
Vhoney_mustard
p1108
sS'frying_chicken'
p1109
g60
sVsweet_creamy_butter
p1110
g671
sS'white_raisins'
p1111
S'raisins'
p1112
sVprosciutto_ham
p1113
Vprosciutto
p1114
sVkey_lime
p1115
g619
sVbeef_sirloin_steak
p1116
g775
sg115
g115
sVSpanish_onion
p1117
g7
sS'ground_pecans'
p1118
g210
sVpepper_sauce
p1119
g392
sVRitz_crackers
p1120
g1120
sVfresh_kale
p1121
S'kale'
p1122
sV1_%_low_-_fat_milk
p1123
g360
sVdungeness_crabs
p1124
g1124
sVorange_peel
p1125
g857
sVground_lean_pork
p1126
S'ground_pork'
p1127
sg1122
g1122
sg857
g857
sVchicken_bouillon_cube
p1128
g412
sVbamboo_skewer
p1129
g491
sVseasoned_rice_vinegar
p1130
g296
sVgreen_apple
p1131
g168
sS'sesame_paste'
p1132
g1132
sS'umeboshi'
p1133
g1133
sS'pink_beans'
p1134
g1134
sVsmall_red_potatoes
p1135
g5
sVsweet_bell_pepper
p1136
g377
sS'seasoned_pepper'
p1137
g118
sS'wafers'
p1138
g1138
sS'butterscotch_pudding_mix'
p1139
g38
sVbing_cherries
p1140
g121
sVdiced_tomatoes_with_mild_green_chilies
p1141
VMexican_-_style_tomatoes
p1142
sS'alum'
p1143
g1143
sS'distilled_water'
p1144
g984
sVdry_active_yeast
p1145
g52
sS'dried_black_beans'
p1146
S'black_beans'
p1147
sVfresh_jalapenos
p1148
g68
sS'Madras_curry_powder'
p1149
g938
sVfresh_bean_sprout
p1150
g273
sVszechwan_pepper
p1151
g722
sVmexicorn
p1152
g1152
sVgreen_tomatoes
p1153
g1153
sS'angel_food_cake'
p1154
g314
sVsweet_peas
p1155
Vgreen_peas
p1156
sVstone_ground_dijon_mustard
p1157
g630
sVgreen_seedless_grapes
p1158
g580
sVaubergine
p1159
Veggplants
p1160
sVseedless_raisin
p1161
g1112
sS'cream_of_mushroom_soup'
p1162
S'cream_of_mushroom_soup'
p1163
sVandouille_sausage
p1164
Vandouille_sausages
p1165
sS'ear_of_corn'
p1166
g205
sVchicken_piece
p1167
S'chicken_pieces'
p1168
sS'barbecue_seasoning'
p1169
g118
sS'frozen_edamame'
p1170
S'edamame'
p1171
sVmineral_water
p1172
g984
sVraspberry_sorbet
p1173
Vraspberry_sherbet
p1174
sS'mango_puree'
p1175
g1175
sS'baking_soda'
p1176
g1176
sg30
g30
sS'amaranth'
p1177
g1177
sS'cooked_shrimp'
p1178
S'shrimp'
p1179
sS'chicken_flavor_stuffing_mix'
p1180
g123
sVflavoring
p1181
g540
sVcandy_canes
p1182
g1182
sS'melon_liqueur'
p1183
g442
sS'Cool_Whip_Topping'
p1184
g846
sVgingersnap_cookies
p1185
g885
sVground_thyme
p1186
g156
sS'hard_alcoholic_cider'
p1187
S'cider'
p1188
sVItalian_-_style_tomatoes
p1189
g143
sS'hominy'
p1190
g1190
sVlamb_shank
p1191
Vlamb_shanks
p1192
sVroasted_pepper
p1193
g736
sS'white_pepper'
p1194
g722
sS'manicotti'
p1195
g1195
sS'frozen_lemonade'
p1196
g827
sVwhite_horseradish
p1197
S'horseradish'
p1198
sS'blood_oranges'
p1199
S'orange'
p1200
sS'instant_banana_pudding_mix'
p1201
g38
sVground_turkey
p1202
g1202
sVkaiser_roll
p1203
g367
sS'dried_black_-_eyed_peas'
p1204
S'black_-_eyed_peas'
p1205
sS'shoyu'
p1206
g184
sg405
g405
sVGreek_oregano
p1207
g621
sS'frozen_vegetables'
p1208
g1208
sS'jicama'
p1209
g1209
sVsugar_cookie
p1210
Vsugar_cookies
p1211
sS'ginger_paste'
p1212
g1212
sS'ground_cloves'
p1213
S'cloves'
p1214
sVred_salmon
p1215
S'salmon'
p1216
sS'light_ricotta_cheese'
p1217
g192
sVporterhouse_steak
p1218
g271
sS'refrigerated_breadstick_dough'
p1219
g1219
sVfresh_onion
p1220
g7
sVbutterfinger_candy_bars
p1221
g1221
sg141
g141
sS'chicken_stock_cube'
p1222
g250
sVdried_shiitake_mushroom
p1223
g1028
sg153
g153
sg814
g814
sVchunky_salsa
p1224
Vpicante_sauce
p1225
sVhard_-_boiled_egg
p1226
Vhardboiled_egg
p1227
sVcandied_ginger
p1228
Vcrystallized_ginger
p1229
sVdried_sweet_basil_leaves
p1230
g987
sVlight_-_brown_sugar
p1231
g253
sS'butternut_pumpkin'
p1232
S'squash'
p1233
sS'beef_sirloin_steaks'
p1234
g775
sVplantain
p1235
g446
sVbartlett_pear
p1236
S'pears'
p1237
sVhoneydews
p1238
g1238
sVsparkling_water
p1239
Vclub_soda
p1240
sVlime_rind
p1241
S'lime_zest'
p1242
sVwax_bean
p1243
g770
sS'tagliatelle_pasta_noodles'
p1244
g1244
sS'Pillsbury_Grands_refrigerated_buttermilk_biscuits'
p1245
g506
sVmarinated_artichoke_hearts
p1246
S'artichokes'
p1247
sg997
g997
sVhidden_valley_ranch_dressing_mix
p1248
g221
sVfresh_gingerroot
p1249
g164
sS'gray_salt'
p1250
g470
sg205
g205
sS'key_limes'
p1251
g619
sS'liver'
p1252
g1252
sg347
g347
sVlightly_sweetened_whipped_cream
p1253
S'whipped_cream'
p1254
sS'yellow_food_coloring'
p1255
g1255
sVrump_roast
p1256
S'beef_roast'
p1257
sVmixed_Italian_herbs
p1258
g347
sS'dried_garbanzo_beans'
p1259
g1259
sS'spice_cake_mix'
p1260
g314
sVblack_mustard_seeds
p1261
g89
sS'minced_garlic_cloves'
p1262
S'garlic'
p1263
sS'brown_bread'
p1264
g56
sS'spaghetti_squash'
p1265
g1265
sVdried_great_northern_beans
p1266
g496
sS'Coleslaw'
p1267
g1267
sVmedium_-_dry_sherry
p1268
g860
sS'oyster_sauce'
p1269
g1269
sS'dried_black_figs'
p1270
S'dried_figs'
p1271
sVpink_grapefruit_juice
p1272
Vgrapefruit_juice
p1273
sVherb_seasoned_stuffing_mix
p1274
g123
sS'grilled_chicken_breast_strips'
p1275
g344
sS'Ragu_pizza_sauce'
p1276
g1065
sS'frozen_cranberry_juice_concentrate'
p1277
S'cranberry_juice'
p1278
sVtomatillo
p1279
Vtomatillos
p1280
sVdijon_-_style_mustard
p1281
g695
sVlemon_twist
p1282
g1282
sVcurry
p1283
g938
sS'sweet_and_sour_sauce'
p1284
g1284
sVsweet_smoked_paprika
p1285
g1052
sVdill_pickle
p1286
g48
sg1023
g1023
sVFrench_fries
p1287
g1287
sVall_-_purpose_white_flour
p1288
g139
sVsliced_mushrooms
p1289
g369
sVbeefsteak_tomatoes
p1290
g143
sVgreen_pepper
p1291
g839
sS'chutney'
p1292
g1292
sVV8_vegetable_juice
p1293
S'vegetable_juice'
p1294
sS'fresh_fettuccine'
p1295
S'fettuccine'
p1296
sS'shortcrust_pastry'
p1297
g1297
sVbuttery_cracker
p1298
g1120
sS'dried_dates'
p1299
g1299
sVwrap
p1300
Vwraps
p1301
sVItalian_pork_sausage
p1302
g145
sS'cheese_crackers'
p1303
g1303
sS'chive_&_onion_cream_cheese'
p1304
g645
sS'meatless_spaghetti_sauce'
p1305
S'spaghetti_sauce'
p1306
sVhot_chili_peppers
p1307
g68
sVcalf_liver
p1308
Vbeef_liver
p1309
sS'summer_savory'
p1310
g459
sS'French_dressing'
p1311
g1311
sVnicoise_olive
p1312
g2
sS'dried_celery_flakes'
p1313
g1313
sVpepperoncini_pepper
p1314
g633
sVinstant_potato_flakes
p1315
Vpotato_flakes
p1316
sVmashed_banana
p1317
Vmashed_bananas
p1318
sS'brown_rice_vinegar'
p1319
g296
sg88
g88
sVamaretti_cookies
p1320
Vamaretti
p1321
sVdried_coriander
p1322
g919
sS'French_beans'
p1323
g1323
sVgin
p1324
g1324
sVavocados
p1325
Vavocado
p1326
sVdried_red_chili_pepper
p1327
g66
sVsweet_potatoes
p1328
g999
sVbulgur_wheat
p1329
Vbulgur
p1330
sS'cherry_gelatin'
p1331
g62
sVsweet_peppers
p1332
g377
sVsun_-_dried_tomatoes
p1333
g434
sS'farina'
p1334
g1334
sS'light_cream'
p1335
g732
sS'Cheerios_toasted_oat_cereal'
p1336
g1336
sS'poultry_seasoning'
p1337
g118
sS'lamb_shoulder'
p1338
g1338
sVgumdrop
p1339
Vgumdrops
p1340
sVpure_vanilla_extract
p1341
g613
sS'somen_noodles'
p1342
g199
sS'nori'
p1343
g1343
sVbrownies
p1344
g1344
sS'gluten_flour'
p1345
g139
sVgreen_tea_bag
p1346
Vgreen_tea
p1347
sVGood_Seasonings_Italian_salad_dressing_mix
p1348
g509
sVwhite_chocolate_baking_square
p1349
g958
sS'dried_mint'
p1350
g623
sS'currants'
p1351
g1351
sVpitted_black_olives
p1352
g153
sS'tempeh'
p1353
g1353
sVkosher_dill_pickle
p1354
g48
sS'cremini_mushrooms'
p1355
g369
sVpitted_ripe_olives
p1356
g2
sS'angel_food_cake_mix'
p1357
g314
sS'pork_loin_chops_with_bone'
p1358
g44
sg790
g790
sS'marmalade'
p1359
g1359
sVdried_breadcrumbs
p1360
g158
sVblue_cheese_dressing
p1361
g568
sVrefrigerated_buttermilk_biscuit
p1362
g506
sS'blood_orange_juice'
p1363
g423
sS'creme_de_banane'
p1364
g1364
sVvanilla_wafer_cookie
p1365
g96
sVhard_salami
p1366
g549
sS'sea_bass'
p1367
g1367
sS'sweetened_whipped_cream'
p1368
g1254
sS'ice_cream_cones'
p1369
g1369
sVsticks
p1370
g1370
sVBurgundy_wine
p1371
S'wine'
p1372
sS'Thai_fish_sauce'
p1373
S'fish_sauce'
p1374
sVcooked_long_-_grain_rice
p1375
g127
sVspring_onion
p1376
S'spring_onions'
p1377
sVrolled_oats
p1378
g243
sVdried_red_beans
p1379
g284
sVspiral_shaped_pasta
p1380
g88
sS'shredded_hash_brown_potatoes'
p1381
g986
sS'head_cauliflower'
p1382
g527
sS'7_-_up'
p1383
S'Sprite'
p1384
sVchicken_bone
p1385
Vchicken_bones
p1386
sS'tomatoes_with_garlic'
p1387
g1387
sVbean_thread_noodles
p1388
g64
sVPLANTERS_Walnuts
p1389
g715
sg1242
g1242
sS'cacao'
p1390
g1390
sS'chablis'
p1391
g1391
sS'persimmon_pulp'
p1392
g1392
sS'malt_vinegar'
p1393
S'vinegar'
p1394
sVpork_fillets
p1395
g1395
sg241
g241
sS'fresh_pumpkin'
p1396
g488
sS'quick_-_cooking_barley'
p1397
S'barley'
p1398
sVladyfingers
p1399
g1399
sVmini_chocolate_chips
p1400
g63
sVChinese_five_spice_powder
p1401
g1401
sVdried_mixed_fruit
p1402
Vdried_fruit
p1403
sVsweet_gherkin
p1404
g48
sS'frozen_carrots'
p1405
g440
sS'carob_powder'
p1406
g1406
sS'peppermint'
p1407
g1407
sS'fresh_lemon_juice'
p1408
S'lemon_juice'
p1409
sS'chocolate_syrup'
p1410
g1410
sS'light_cheddar_cheese'
p1411
g275
sVbanana_peppers
p1412
g1412
sVleek
p1413
Vleeks
p1414
sVground_rosemary
p1415
g9
sVtamale
p1416
Vtamales
p1417
sS'sugar_-_free_strawberry_gelatin'
p1418
g62
sVdried_basil
p1419
g987
sVfree_-_range_egg
p1420
g322
sS'grilled_chicken'
p1421
g60
sVcolored_sprinkles
p1422
g197
sVFrench_style_green_bean
p1423
g228
sVwood_chips
p1424
g1424
sVdried_cilantro
p1425
g919
sVskinless_chicken_piece
p1426
g1168
sVgala_apples
p1427
g168
sVwhole_almond
p1428
S'almonds'
p1429
sS'white_cabbage'
p1430
S'cabbage'
p1431
sS'radicchio'
p1432
g1432
sS'garlic_cloves'
p1433
g1263
sVKRAFT_Shredded_Cheddar_Cheese
p1434
g275
sS'cooked_jasmine_rice'
p1435
g127
sS'sea_scallops'
p1436
S'scallops'
p1437
sVmahi_mahi_fillets
p1438
g1438
sVcountry_-_style_pork_ribs
p1439
Vpork_spareribs
p1440
sVpotato
p1441
g5
sS'coconut_water'
p1442
g1442
sS'lemon_extract'
p1443
g1443
sVreduced_sodium_soy_sauce
p1444
g184
sVpurple_potatoes
p1445
g5
sS'creole_mustard'
p1446
g630
sVmandarin_orange_sections
p1447
g342
sVwhole_allspice
p1448
g515
sVlarge_scallops
p1449
g1437
sg501
g501
sVsharp_white_cheddar_cheese
p1450
g275
sS'cream_of_onion_soup'
p1451
g1451
sS'tomato_puree'
p1452
g1452
sValfalfa_sprouts
p1453
g1453
sVboneless_skinless_chicken_thighs
p1454
g667
sVsunflower_oil
p1455
g15
sVroasted_garlic_clove
p1456
g1263
sS'cheesecake'
p1457
g1457
sVprepared_yellow_mustard
p1458
g630
sVbrazil_nut
p1459
g1088
sg509
g509
sVyellow_wax_beans
p1460
g770
sVdried_Italian_seasoning
p1461
g347
sS'Quark'
p1462
g1462
sVliqueurs
p1463
g442
sVIrish_whiskey
p1464
g790
sS'mitsuba'
p1465
g1465
sVcantaloupes
p1466
Vcantaloupe
p1467
sVscallion_tops
p1468
g1377
sV2_%_low_-_fat_milk
p1469
g360
sg1271
g1271
sS'turkey_breast_tenderloins'
p1470
g190
sS'camembert_cheese'
p1471
g1471
sg79
g79
sVturkey_stock
p1472
Vturkey_broth
p1473
sVlamb_loin_chop
p1474
Vlamb_loin_chops
p1475
sVunbaked_pie_shells
p1476
g292
sS'chocolate_-_covered_coffee_beans'
p1477
g1477
sVfresh_orange_juice
p1478
g423
sS'chocolate_pudding'
p1479
g1479
sVvegetable_stock_cube
p1480
g91
sVwild_mushroom
p1481
Vwild_mushrooms
p1482
sVsucanat
p1483
g1483
sVpecan_halves
p1484
g210
sg248
g248
sS'havarti_cheese'
p1485
g1485
sVvanilla_pod
p1486
g703
sVCrisco_cooking_oil
p1487
g15
sVpure_olive_oil
p1488
g169
sVegg_roll_wrap
p1489
Vwonton_wrappers
p1490
sVcold_water
p1491
g984
sVanchovies_packed_in_oil
p1492
g202
sVunsweetened_chocolate
p1493
g1493
sVwhole_mushroom
p1494
g369
sVstring
p1495
g1495
sS'floury_potatoes'
p1496
g5
sVdigestive_biscuits
p1497
g1497
sVred_hot_sauce
p1498
g392
sS'pan_drippings'
p1499
g387
sS'gluten_free_baking_powder'
p1500
g54
sg736
g736
sVsweet_corn
p1501
g205
sVchopped_pimiento
p1502
g20
sVwhite_button_mushrooms
p1503
g369
sS'brewed_espresso'
p1504
S'espresso'
p1505
sS'instant_beef_bouillon'
p1506
g562
sVcreme_de_menthe
p1507
g1507
sVdry_lentils
p1508
g309
sS'mushroom_pieces'
p1509
g1509
sS'Italian_breadcrumbs'
p1510
g158
sS'Heinz_57_steak_sauce'
p1511
S'steak_sauce'
p1512
sVwhite_vinegar
p1513
g1513
sVfive_-_spice_powder
p1514
g1401
sVtortillas
p1515
g1515
sVwhole_wheat_hamburger_bun
p1516
g237
sVlimes
p1517
g619
sS'Japanese_-_style_bread_crumbs'
p1518
g158
sS'fat_-_free_cool_whip'
p1519
g846
sS'rotel'
p1520
g1520
sVmandarin_orange
p1521
g342
sS'raspberry_vinaigrette_dressing'
p1522
g1522
sVoranges_,_juice_of
p1523
g423
sVbeef_tenderloin_steaks
p1524
Vbeef_tenderloin
p1525
sVtriple_sec
p1526
g1526
sS'biscotti'
p1527
g1527
sVdiced_tomatoes_with_basil_oregano_and_garlic
p1528
g143
sVcoating_mix
p1529
g1529
sS'vanilla_yogurt'
p1530
g1530
sVskewer
p1531
g491
sS'raw_shrimp'
p1532
g1179
sVrefrigerated_crescent_dinner_roll
p1533
Vcrescent_roll_dough
p1534
sVpurple_onion
p1535
Vred_onions
p1536
sg639
g639
sS'fresh_mussels'
p1537
S'mussels'
p1538
sVcanned_pumpkin_puree
p1539
g215
sVcookie_cutter
p1540
g598
sVred_snapper_fillets
p1541
Vred_snapper
p1542
sValmond_bark
p1543
g1543
sVbeef_bones_with_marrow
p1544
Vbeef_bones
p1545
sS'Tang_orange_crystals'
p1546
g239
sS'baby_artichokes'
p1547
g1247
sVhot_red_chili_peppers
p1548
g1026
sS'onion_juice'
p1549
g1294
sVfrankfurter
p1550
g558
sVflour_tortillas
p1551
g1551
sg859
g859
sS'cherry_tomatoes'
p1552
g1552
sS'lime_wedges'
p1553
g619
sS'gnocchi'
p1554
g1554
sS'beef_brisket'
p1555
g1555
sVbeef_shank
p1556
g1556
sVpancake_syrup
p1557
g196
sS'anise_extract'
p1558
g1558
sS'red_onion_rings'
p1559
S'onion_rings'
p1560
sVgoji_berries
p1561
g1561
sVgreen_grape
p1562
g580
sS'chocolate_sprinkles'
p1563
g1563
sVsalmon_steaks
p1564
g294
sVdill_weed
p1565
g461
sVchicken_breast_fillets
p1566
S'chicken_tenders'
p1567
sVgolden_rum
p1568
g235
sVcoriander_seeds
p1569
g1569
sVcooking_sherry
p1570
g860
sS'cooked_pasta'
p1571
g276
sVgreen_onions_with_top
p1572
g1377
sVcanned_artichoke_heart
p1573
S'artichoke_hearts'
p1574
sS'low_-_fat_cream_of_mushroom_soup'
p1575
g1162
sVOSCAR_MAYER_Center_Cut_Bacon
p1576
g32
sVfresh_large_mushroom
p1577
g369
sS'salt_cod_fish'
p1578
g1578
sVkosher_dill_pickles
p1579
g48
sVscotch_bonnet_peppers
p1580
g649
sg1538
g1538
sS'lump_crabmeat'
p1581
S'crabmeat'
p1582
sVbaking_chocolate
p1583
g431
sVsan_marzano_tomatoes
p1584
g143
sg901
g901
sg984
g984
sVbiscuit_dough
p1585
g506
sVfresh_jalapeno_pepper
p1586
g68
sS'frosting'
p1587
g1587
sS'boiled_ham'
p1588
g224
sS'brown_rice_syrup'
p1589
g1589
sS'unsweetened_coconut'
p1590
g454
sS'vanilla_flavoring'
p1591
S'vanilla'
p1592
sVfresh_cilantro_stem
p1593
g233
sVcaramel_candy
p1594
g97
sg42
g42
sVwhole_canned_tomatoes
p1595
g143
sVFrench_onion_soup_mix
p1596
g501
sVdried_dill
p1597
g461
sVbuttermilk_biscuits
p1598
g506
sVfresh_rhubarb
p1599
Vrhubarb
p1600
sS'creme_fraiche'
p1601
g1601
sVbaby_red_potatoes
p1602
g5
sS'soup_stock'
p1603
g250
sVcondensed_cream_of_celery_soup
p1604
Vcream_of_celery_soup
p1605
sg1372
g1372
sVcinnamon
p1606
g1606
sg1174
g1174
sS'coleslaw_mix'
p1607
g1607
sS'white_cornmeal'
p1608
g1608
sVfresh_spinach_leaves
p1609
g643
sVbeetroots
p1610
g972
sVchinese_chives
p1611
g683
sS'pumpkin_pie_filling'
p1612
S'pie_filling'
p1613
sg1156
g1156
sVfirm_silken_tofu
p1614
g906
sVjar
p1615
Vjars
p1616
sS'nonfat_vanilla_yogurt'
p1617
g1530
sVpecorino_romano_cheese
p1618
Vromano_cheese
p1619
sS'small_shrimp'
p1620
g1179
sS'cajun_seasoning'
p1621
g118
sVgolden_raisin
p1622
g1112
sS'celery_hearts'
p1623
g514
sVpineapple_ring
p1624
g504
sS'caribbean_jerk_seasoning'
p1625
g118
sS'lemon_sorbet'
p1626
g1626
sVpork_tenderloin
p1627
g1627
sS'brewed_coffee'
p1628
g468
sS'broccoli_rabe'
p1629
g1629
sS'mint_leaf'
p1630
g623
sVsweet_unsalted_butter
p1631
g671
sVsaltine
p1632
g864
sS'sake'
p1633
g1633
sS'beet_juice'
p1634
g1294
sVjumbo_shrimp
p1635
g1179
sS'cooking_apples'
p1636
g168
sS'Mexican_crema'
p1637
g113
sVflank_steak
p1638
g271
sS'sweetcorn'
p1639
g205
sS'whole_wheat_pita_bread'
p1640
g665
sS'black_vinegar'
p1641
g1394
sVmsg
p1642
g1642
sVnew_mexico_chile_powder
p1643
g115
sVfine_sea_salt
p1644
g470
sVyoghurt
p1645
g608
sVlemon_pepper
p1646
g1646
sS'whole_turkey'
p1647
g1647
sS'boneless_center_cut_pork_chops'
p1648
g44
sS'quinces'
p1649
g1649
sS'pumpernickel_bread'
p1650
g1650
sS'boneless_beef_roast'
p1651
g1257
sVhomemade_mayonnaise
p1652
S'mayonnaise'
p1653
sVtilapia_fillet
p1654
g99
sVvegan_butter
p1655
g316
sS'canned_chicken_broth'
p1656
g412
sVbrown_gravy_mix
p1657
Vbeef_gravy
p1658
sS'homemade_chicken_stock'
p1659
g250
sVbaby_peas
p1660
S'peas'
p1661
sS'white_sesame_seeds'
p1662
g267
sg431
g431
sS'clear_honey'
p1663
g892
sVolive
p1664
g2
sV8_-_inch_flour_tortillas
p1665
g1551
sVcinnamon_-_raisin_bread
p1666
S'raisin_bread'
p1667
sVdried_mushroom
p1668
g1028
sVveal_scallopini
p1669
Vveal_cutlets
p1670
sVlow_-_sodium_low_-_fat_chicken_broth
p1671
g250
sVlight_olive_oil
p1672
g169
sS'oil_-_cured_black_olives'
p1673
g153
sg892
g892
sS'macadamia_nuts'
p1674
g1674
sS'chicken_cutlets'
p1675
g1168
sg590
g590
sS'green_olives'
p1676
g2
sVnatural_almonds
p1677
g1429
sS'malted_milk_balls'
p1678
g1678
sVvegetable_oil_cooking_spray
p1679
g401
sS'naan_bread'
p1680
g1680
sVgreen_chili_peppers
p1681
g68
sS'chicken_strips'
p1682
g1567
sVchicken_tenderloins
p1683
g1567
sg1490
g1490
sVanchovy
p1684
g202
sS'yellow_cherry_tomatoes'
p1685
g1552
sS'boiling_potatoes'
p1686
g5
sS'boneless_beef_chuck'
p1687
g1687
sS'banana_chips'
p1688
g1688
sVpickle
p1689
g48
sVplum
p1690
S'plums'
p1691
sS'croutons'
p1692
g1692
sS'lemon_,_juice_and_zest_of'
p1693
g1409
sS'dry_marsala'
p1694
S'marsala'
p1695
sVmilk_chocolate_pieces
p1696
g63
sVcipollini_onion
p1697
g7
sS'ganache'
p1698
g1698
sS'light_beer'
p1699
g981
sVCrystal_hot_sauce
p1700
g392
sVred_beet
p1701
g972
sVfresh_crabmeat
p1702
g1582
sS'baking_potatoes'
p1703
g5
sS'turnip_greens'
p1704
g1704
sVoatmeal
p1705
g243
sVgreen_tomato
p1706
g1153
sVbaking_apples
p1707
g168
sVhot_pepper_flakes
p1708
g66
sVquick_oatmeal
p1709
g243
sVTruvia
p1710
g195
sVsugar_cookie_mix
p1711
g1711
sVbaby_red_potato
p1712
g5
sS'harissa'
p1713
g1713
sVtop_round_steak
p1714
g271
sS'canned_kidney_beans'
p1715
g284
sVBrussels_sprout
p1716
VBrussels_sprouts
p1717
sS'Velveeta_cheese'
p1718
g812
sVfat_-_free_chicken_broth
p1719
g412
sS'cardamom_seeds'
p1720
g647
sS'Coke'
p1721
g162
sVhead_romaine_lettuce
p1722
g408
sS'wine_vinegar'
p1723
g1394
sS'bay_scallops'
p1724
g1437
sS'pomegranate_seeds'
p1725
g1725
sS'pearl_barley'
p1726
g1398
sVgherkin
p1727
Vcornichons
p1728
sVartichoke_bottom
p1729
Vartichoke_bottoms
p1730
sVdried_leaf_thyme
p1731
g156
sVanise_seeds
p1732
g332
sVgruyere
p1733
g1733
sS'Classico_tomato_and_basil_pasta_sauce'
p1734
g1734
sVunbleached_cane_sugar
p1735
g1483
sVJapanese_soy_sauce
p1736
g184
sS'beef_eye_round'
p1737
g58
sVcoconut_extract
p1738
g1738
sS'fresh_garlic'
p1739
g1263
sS'pot_roast'
p1740
g1740
sS'kabocha_squash'
p1741
g1741
sVyellow_mustard_seeds
p1742
g89
sVchicken_breast_tenders
p1743
g1567
sVfresh_broccoli_florets
p1744
Vbroccoli_florets
p1745
sVkumquats
p1746
g1746
sS'whole_wheat_spaghetti'
p1747
g745
sg62
g62
sVwhole_black_peppercorns
p1748
g722
sS'fresh_horseradish'
p1749
g1198
sVdry_red_wine
p1750
g1372
sg615
g615
sS'ginger_-_garlic_paste'
p1751
g1751
sS'acorn_squash'
p1752
g1752
sS'chicken_leg_quarters'
p1753
g667
sVfrozen_hash_brown_potatoes
p1754
g986
sVmorels
p1755
g1755
sVmild_Italian_sausage
p1756
g145
sVcrepe
p1757
g334
sVshiitake_mushroom
p1758
Vshiitake_mushrooms
p1759
sVliquid
p1760
g984
sVbacon_pieces
p1761
g107
sS'octopus'
p1762
g1762
sVRed_Delicious_apples
p1763
g168
sS'diced_green_chilies'
p1764
g68
sS'colby_-_monterey_jack_cheese'
p1765
g1043
sVcanning_salt
p1766
g960
sVfresh_pear
p1767
g1237
sVmango
p1768
g907
sVWheat_Chex
p1769
VChex_cereal
p1770
sS'palm_sugar'
p1771
g1771
sg381
g381
sVAmaretto
p1772
g1772
sVcabbage_leaves
p1773
g1431
sVfresh_white_breadcrumbs
p1774
g158
sVsweet_Italian_sausage_link
p1775
g145
sVRotel_Tomatoes
p1776
g1520
sS'ginger_beer'
p1777
g1777
sVMidori_melon_liqueur
p1778
g442
sVground_red_pepper
p1779
g535
sS'Urad_Dal'
p1780
g1780
sVlean_ground_turkey
p1781
g1202
sVfilet_of_beef
p1782
g1525
sVunsweetened_dried_shredded_coconut
p1783
g454
sS'white_cake_mix'
p1784
g314
sVraspberry_gelatin_powder
p1785
g1785
sVfresh_garlic_cloves
p1786
g1263
sg269
g269
sVprosecco
p1787
S'champagne'
p1788
sS'salt_water'
p1789
S'brine'
p1790
sg228
g228
sg162
g162
sS'coffee_ice_cream'
p1791
g1791
sS'allspice_berries'
p1792
g515
sS'frozen_sweet_peas'
p1793
g1793
sVcarbonated_water
p1794
g1240
sVbaking_mix
p1795
VBisquick
p1796
sg172
g172
sVbagels
p1797
g1797
sS'crushed_pineapple_in_syrup'
p1798
g504
sVdried_herb
p1799
g189
sS'shimeji_mushrooms'
p1800
g369
sVinstant_coffee_granules
p1801
Vinstant_coffee
p1802
sVThai_red_chili_peppers
p1803
g1026
sVbroccoli_floret
p1804
g1745
sS'tomato_paste'
p1805
g1805
sS'red_lentils'
p1806
g309
sVfresh_lime_juice
p1807
g628
sS'red_enchilada_sauce'
p1808
S'enchilada_sauce'
p1809
sS'caesar_salad_dressing'
p1810
g1810
sS'corn_flakes'
p1811
g1811
sVbechamel_sauce
p1812
Vwhite_sauce
p1813
sVpeach_brandy
p1814
Vapricot_brandy
p1815
sS'roasting_chickens'
p1816
g60
sS'soybeans'
p1817
g1817
sVFrench_vanilla_ice_cream
p1818
S'vanilla_ice_cream'
p1819
sVdark_chili_powder
p1820
g115
sVpickled_jalapeno_peppers
p1821
g68
sS'key_lime_juice'
p1822
g628
sVsnap_peas
p1823
g22
sS'black_mission_figs'
p1824
g86
sVvegetable_bouillon_granules
p1825
g91
sg1318
g1318
sS'vegetarian_worcestershire_sauce'
p1826
S'Worcestershire_sauce'
p1827
sVblack_cardamom_pod
p1828
g647
sg214
g214
sS'bean_paste'
p1829
g1829
sS'craisins'
p1830
g1830
sg337
g337
sS'vanilla_-_flavored_soymilk'
p1831
S'soymilk'
p1832
sg529
g529
sVsemisweet_mini_chocolate_chips
p1833
g63
sVnonfat_milk
p1834
g360
sVunsweetened_chocolate_square
p1835
g1493
sS'manchego_cheese'
p1836
g1836
sg1374
g1374
sVsweet_pepper
p1837
g377
sVchopped_tomatoes
p1838
g257
sS'collard_greens'
p1839
g1839
sVmint_leaves
p1840
g623
sVginger_snaps
p1841
g885
sg671
g671
sS'ground_lamb'
p1842
g1842
sVinstant_chocolate_pudding_mix
p1843
g38
sVminced_meat
p1844
g149
sg562
g562
sVhot_red_pepper_flakes
p1845
g66
sVAsian_pears
p1846
g1237
sS'skirt_steaks'
p1847
g271
sS'ginger_juice'
p1848
g1848
sS'all_-_purpose_flour'
p1849
g139
sVbutter_lettuce
p1850
g408
sS'unsalted_peanuts'
p1851
S'peanuts'
p1852
sS'Planters_pecans'
p1853
g210
sS'goose'
p1854
g1854
sS'vanilla_wafer_crumbs'
p1855
g96
sVtart_cooking_apples
p1856
g168
sS'Canadian_bacon'
p1857
g1857
sVsesame_seed_oil
p1858
g564
sVpork_sausage_link
p1859
g280
sVbroad_bean
p1860
Vbroad_beans
p1861
sS'Red_Bliss_potatoes'
p1862
g5
sS'horseradish_mustard'
p1863
g1863
sVreduced_-_fat_cream_cheese
p1864
g645
sVpeach_jam
p1865
g452
sVpastry_for_double_-_crust_pie
p1866
g292
sVstone_ground_mustard
p1867
g630
sVcream_sherry
p1868
g860
sS'chicken_bouillon_granules'
p1869
g412
sVbay_scallop
p1870
g1437
sS'French_vanilla_instant_pudding'
p1871
g38
sVbitter_chocolate
p1872
Vdark_chocolate
p1873
sVgarlic_salt
p1874
Vgarlic_powder
p1875
sg134
g134
sVRotel_tomatoes_&_chilies
p1876
g1520
sVpork_cutlet
p1877
Vpork_cutlets
p1878
sg1198
g1198
sg356
g356
sVPam_cooking_spray
p1879
g401
sS'lemonade_concentrate'
p1880
g827
sVtomatoes_with_juice
p1881
g1881
sg1536
g1536
sS'graham_cracker_crust'
p1882
g1882
sS'gluten_-_free_flour'
p1883
g139
sS'quick_-_cooking_grits'
p1884
S'grits'
p1885
sg463
g463
sVcoffee_liqueur
p1886
g687
sVcocoa_powder
p1887
g389
sg1214
g1214
sS'tarragon_vinegar'
p1888
g1394
sVraw_carrot
p1889
g440
sVunsweetened_pineapple_chunks
p1890
g504
sVtart_shells
p1891
g1891
sVromaine_lettuce_leaves
p1892
g408
sS'CALUMET_Baking_Powder'
p1893
g54
sVsmoked_almonds
p1894
Vsliced_almonds
p1895
sVessential_oils
p1896
g1896
sVcorn_husk
p1897
Vcorn_husks
p1898
sVHeinz_apple_cider_vinegar
p1899
Vcider_vinegar
p1900
sg715
g715
sg823
g823
sS'aioli'
p1901
g1901
sS'black_caviar'
p1902
S'caviar'
p1903
sVfresh_shiitake_mushroom
p1904
g1759
sS'hazelnut_oil'
p1905
g1905
sS'amaranth_flour'
p1906
g1906
sVcooked_chicken_breast
p1907
g60
sVbread_stuffing_mix
p1908
g123
sVdried_thyme_leaves
p1909
g156
sVchuck_roast
p1910
g1910
sVtomatillo_salsa
p1911
Vsalsa_verde
p1912
sVground_cumin
p1913
Vcumin
p1914
sS'angel_hair_pasta'
p1915
g1915
sS'chocolate_wafer_crumbs'
p1916
g1916
sVinstant_nonfat_dry_milk_powder
p1917
g740
sVbuffalo_wing_sauce
p1918
g392
sVwhole_bay_leaf
p1919
g729
sS'cardamom_pods'
p1920
g647
sS'schnapps'
p1921
g1921
sS'crescent_rolls'
p1922
g399
sVbalsamic_vinaigrette
p1923
g1923
sVhot_salsa
p1924
g392
sS'Scotch_whisky'
p1925
g1925
sS'condensed_tomato_soup'
p1926
g203
sS'pepperoni'
p1927
g1927
sVherb_stuffing_mix
p1928
g123
sS'cooked_ham'
p1929
g1929
sS'peach_juice'
p1930
g1930
sVkalamata_olive
p1931
g153
sg522
g522
sVcheese_ravioli
p1932
g1932
sVred_chili_sauce
p1933
g392
sVwhole_black_peppercorn
p1934
g722
sVdark_rum
p1935
g235
sS'cocoa_butter'
p1936
g1936
sS'royal_icing'
p1937
g1937
sVchocolate_candy_bar
p1938
g431
sS'tamari'
p1939
g184
sS'pitted_dates'
p1940
S'dates'
p1941
sVCoca_-_Cola
p1942
g162
sS'ready_-_to_-_use_baked_pizza_crust'
p1943
S'pizza_crust'
p1944
sVskirt_steak
p1945
g271
sg1912
g1912
sVhoagie_roll
p1946
g367
sS'pork_fat'
p1947
g1947
sVwhole_tomato
p1948
g143
sVfine_breadcrumbs
p1949
g158
sS'chocolate_protein_powder'
p1950
g208
sS'poppy_seed_dressing'
p1951
g1951
sS'cheddar_cheese_soup'
p1952
g1952
sS'salad_dressing'
p1953
g1953
sS'condensed_cheddar_cheese_soup'
p1954
g1952
sVcannellini_beans
p1955
S'white_beans'
p1956
sS'yellow_tomatoes'
p1957
g143
sVboneless_pork_roast
p1958
Vpork_roast
p1959
sVcognac
p1960
g797
sg328
g328
sS'goat_meat'
p1961
g1961
sVbeef_bouillon_cubes
p1962
g562
sg12
g12
sS'French_bread_cubes'
p1963
g626
sVbutterfinger_candy_bar
p1964
g1221
sVround_steak
p1965
g271
sVcaramel_syrup
p1966
Vcaramel_sauce
p1967
sVparmesan_-_romano_cheese_mix
p1968
S'parmigiano'
p1969
sS'skim_milk_powder'
p1970
g740
sVCreme_de_Cacao
p1971
S'Creme_de_Cacao'
p1972
sVswiss_chard_leaves
p1973
g911
sS'refrigerated_pie_dough'
p1974
g657
sS'vermicelli'
p1975
g1975
sVcrushed_tomatoes_in_puree
p1976
g776
sS'celery_root'
p1977
g1977
sS'frozen_pearl_onions'
p1978
S'white_pearl_onions'
p1979
sS'sourdough_bread'
p1980
g56
sS'udon_noodles'
p1981
g199
sVcelery_rib
p1982
Vcelery_ribs
p1983
sg1819
g1819
sVbeef_bone
p1984
g1545
sS'smoked_turkey'
p1985
S'turkey'
p1986
sg243
g243
sVbreadstick
p1987
Vbreadsticks
p1988
sS'mirin'
p1989
g1989
sVfresh_basil_leaf
p1990
g987
sVcocktail_franks
p1991
g1991
sVspareribs
p1992
g302
sVpreserved_lemons
p1993
g1993
sS'five_cheese_blend'
p1994
g1994
sVcanned_milk
p1995
g70
sg1240
g1240
sS'fresh_herbs'
p1996
g189
sVCampbell's_Cream_of_Mushroom_Soup
p1997
g974
sS'dill_pickles'
p1998
g48
sVherb_seasoning_mix
p1999
g118
sVchicken_bouillon_powder
p2000
g412
sS'almond_butter'
p2001
g2001
sS'lettuce_leaf'
p2002
g408
sVfresh_pineapple_chunks
p2003
g485
sVchicken_stock
p2004
g412
sS'cooked_sweet_potatoes'
p2005
g999
sg454
g454
sVfilet_mignon
p2006
g1525
sValmond_flavoring
p2007
S'almond_extract'
p2008
sg1534
g1534
sS'scallions'
p2009
g1377
sg1225
g1225
sVchili_bean
p2010
g284
sVSplenda_Sugar_Blend_for_Baking
p2011
g374
sS'head_of_cabbage'
p2012
g1431
sS'port_wine'
p2013
S'ruby_port'
p2014
sVbaby_potatoes
p2015
g5
sVreduced_-_fat_mozzarella_cheese
p2016
g690
sVbasil_sprig
p2017
g987
sVgreen_bell_pepper
p2018
g839
sVJELL_-_O_Chocolate_Instant_Pudding
p2019
g38
sVminiature_peanut_butter_cup
p2020
S'peanut_butter_cups'
p2021
sVwhole_pecans
p2022
g210
sS'chickpea_flour'
p2023
g2023
sS'prime_rib_roast'
p2024
g2024
sVKRAFT_Shredded_Mild_Cheddar_Cheese
p2025
g275
sS'vanilla_Greek_yogurt'
p2026
g1530
sVsalt_substitute
p2027
g118
sg1384
g1384
sg864
g864
sS'pineapple_slices'
p2028
g504
sVfrozen_green_pea
p2029
Vfrozen_peas
p2030
sg1525
g1525
sVfat_-_free_whipped_topping
p2031
g846
sg330
g330
sVsaltine_crackers
p2032
g864
sVfilet_mignon_steaks
p2033
g1525
sVpie_shells
p2034
g292
sS'jarlsberg_cheese'
p2035
g2035
sS'country_ham'
p2036
g2036
sS'stock_cubes'
p2037
g250
sS'cracker_meal'
p2038
g571
sS'light_cream_cheese_spread'
p2039
g645
sVhorseradish_cream
p2040
Vhorseradish_sauce
p2041
sVbaking_sheet
p2042
Vparchment_paper
p2043
sVchocolate_curls
p2044
g431
sVplain_breadcrumbs
p2045
g158
sVfrozen_chopped_spinach
p2046
g643
sVfile_powder
p2047
g2047
sVsaffron_strands
p2048
g354
sVsweet_green_peppers
p2049
g839
sg1809
g1809
sS'beef_t_-_bone_steaks'
p2050
g271
sVbutton_mushrooms
p2051
g369
sVsweet_sherry
p2052
g860
sVbeef_hot_dog
p2053
g558
sS'fat_free_ranch_dressing'
p2054
g568
sVpickled_beet
p2055
Vpickled_beets
p2056
sVchianti_wine
p2057
g1372
sVpistachio_nuts
p2058
S'pistachios'
p2059
sg1944
g1944
sVinstant_coffee_crystals
p2060
g1802
sS'dried_kidney_beans'
p2061
g284
sVcloth
p2062
Vcheesecloth
p2063
sVapricot_halves
p2064
S'apricots'
p2065
sVwild_blueberries
p2066
S'blueberries'
p2067
sS'seafood'
p2068
g2068
sS'frozen_artichoke_hearts'
p2069
g1574
sVhot_red_pepper
p2070
Vcayenne
p2071
sS'Braggs_liquid_aminos'
p2072
g2072
sVbottled_lemon_juice
p2073
g1409
sVlow_-_fat_sour_cream
p2074
g113
sVrice_sticks
p2075
g64
sS'head_lettuce'
p2076
g408
sVsalad_dressing_mix
p2077
g509
sS'soup_mix'
p2078
g2078
sVwhite_rum
p2079
g235
sg470
g470
sg761
g761
sS'porterhouse_steaks'
p2080
g271
sVunsweetened_cocoa_powder
p2081
g389
sVbell_peppers
p2082
g377
sVromaine_lettuce
p2083
g408
sS'green_peppercorns'
p2084
g722
sVporcini_mushroom
p2085
g1028
sVcherry_Jell_-_O
p2086
g62
sS'mochiko_sweet_rice_flour'
p2087
S'rice_flour'
p2088
sS'rye_bread'
p2089
g56
sS'dried_pineapple'
p2090
g2090
sg1086
g1086
sS'whole_chicken'
p2091
g60
sVfrozen_green_peas
p2092
g2030
sVpork_rib_chop
p2093
g302
sVdry_oregano
p2094
g621
sS'orange_extract'
p2095
g2095
sVchicken_bouillon_granule
p2096
g412
sS'calamari'
p2097
g2097
sVPillsbury_Refrigerated_Crescent_Dinner_Rolls
p2098
g1534
sS'queso_fresco'
p2099
g2099
sS'channa_dal'
p2100
g2100
sS'instant_polenta'
p2101
S'polenta'
p2102
sVreduced_-_fat_milk
p2103
g360
sg192
g192
sg158
g158
sS'coconut_butter'
p2104
g2104
sS'white_chocolate'
p2105
g2105
sS'bread_and_butter_pickles'
p2106
g2106
sVbamboo_shoots
p2107
g2107
sVpimento_pepper
p2108
g377
sVmushroom_stems_and_pieces
p2109
g1509
sVhot_paprika
p2110
g1052
sg2088
g2088
sVlemon_-_flavored_vodka
p2111
g326
sg1691
g1691
sg488
g488
sVgreen_chili
p2112
g68
sVItalian_spices
p2113
g347
sS'skinless_chicken_breast'
p2114
g344
sS'muenster_cheese'
p2115
g522
sVbeef_cube_steak
p2116
g104
sS'buttermilk_baking_mix'
p2117
g2117
sS'foie_gras'
p2118
g182
sVcoconut_flavoring
p2119
g1738
sVdried_pasilla_pepper
p2120
g66
sS'peanut_oil'
p2121
g2121
sS'tart_green_apples'
p2122
g168
sS'honey_mustard_dressing'
p2123
g2123
sS'raspberry_flavored_syrup'
p2124
g2124
sS'dry_green_lentils'
p2125
g309
sS'Simply_Potatoes_Diced_Potatoes_with_Onion'
p2126
g2126
sS'shoulder_lamb_chops'
p2127
S'lamb_chops'
p2128
sg1026
g1026
sg1127
g1127
sVsweet_apple
p2129
g168
sVfresh_peach
p2130
g1086
sVorange_-_flavored_liqueur
p2131
g442
sS'smoked_sausage'
p2132
g2132
sS'bay_shrimp'
p2133
g1179
sVsmoked_ham_hock
p2134
Vsmoked_ham_hocks
p2135
sg1813
g1813
sS'chicken_thighs'
p2136
g667
sS'balsamic_glaze'
p2137
g2137
sVfennel_seeds
p2138
g2138
sVground_round
p2139
g149
sS'nicoise_olives'
p2140
g2
sVjalapeno_peppers
p2141
g68
sg1914
g1914
sVchipotle_chile
p2142
g26
sVnutritional_yeast
p2143
g2143
sVchili_peppers
p2144
g68
sS'jumbo_pasta_shells'
p2145
S'pasta_shells'
p2146
sVbeef_stock
p2147
g562
sS'dulce_de_leche'
p2148
g2148
sVfresh_chives
p2149
g683
sS'dried_yeast'
p2150
g52
sVboneless_beef_chuck_roast
p2151
g1910
sVdeep_dish_pie_shell
p2152
g292
sVtortilla
p2153
g1515
sS'mesclun'
p2154
g2154
sS'Brut_champagne'
p2155
g1788
sVglutinous_rice
p2156
g30
sVnutritional_yeast_flakes
p2157
g2143
sS'masa_harina'
p2158
g2158
sVorange_liqueur
p2159
g442
sS'Special_K_cereal'
p2160
g2160
sVassorted_fresh_vegetable
p2161
S'vegetables'
p2162
sS'minced_clams'
p2163
g2163
sVdried_prunes
p2164
g214
sS'pizza_dough'
p2165
g2165
sg2063
g2063
sg1658
g1658
sVmint_extract
p2166
g238
sVcampbell's_tomato_soup
p2167
g203
sS'cooked_quinoa'
p2168
S'quinoa'
p2169
sS'coconut_sugar_crystals'
p2170
g2170
sg1052
g1052
sVplum_tomato
p2171
g143
sVsage_sprigs
p2172
g802
sS'turkey_cutlets'
p2173
g2173
sg1473
g1473
sS'beef_flank_steak'
p2174
g271
sVhoneydew
p2175
g1238
sVwhite_sugar
p2176
g93
sVcayenne_pepper
p2177
g2071
sg40
g40
sVred_radish
p2178
S'radishes'
p2179
sVfresh_jalapeno_chilie
p2180
g68
sS'cracker_crumbs'
p2181
g571
sS'fajita_seasoning_mix'
p2182
g118
sVgoat_cheese
p2183
Vgorgonzola
p2184
sVchanterelle_mushroom
p2185
g369
sVroasted_red_peppers
p2186
g736
sVtuna_packed_in_oil
p2187
g965
sS'calvados'
p2188
g797
sS'chevre_cheese'
p2189
g2189
sS'cream_of_shrimp_soup'
p2190
g2190
sVboneless_skinless_chicken_breast_halves
p2191
g344
sVdark_sweet_cherries
p2192
g121
sS'chocolate_cookie_pie_crust'
p2193
g2193
sVduck_breast
p2194
Vduck_breasts
p2195
sg1171
g1171
sVasparagus_spear
p2196
g652
sg1467
g1467
sVtangerines
p2197
g2197
sS'lean_ham'
p2198
g224
sS'salted_butter'
p2199
g671
sVhot_pepper
p2200
g68
sVseasoned_bread_crumbs
p2201
g158
sg1730
g1730
sVwhole_wheat_tortillas
p2202
g2202
sVpoblano_chile
p2203
Vpoblano_chiles
p2204
sVspring_roll_wrappers
p2205
g1490
sVchili_oil
p2206
g2206
sVfrozen_sliced_peaches
p2207
g1086
sVinstant_minced_garlic
p2208
g1875
sS'cooked_turkey_breast'
p2209
g190
sVbaking_cocoa
p2210
g389
sVcorn_muffin_mix
p2211
g278
sS'cooked_beef'
p2212
g58
sVhabanero
p2213
g649
sg1941
g1941
sg1316
g1316
sS'sugar_pumpkin'
p2214
g488
sVlavender_flowers
p2215
g679
sVno_-_salt_-_added_black_beans
p2216
g1147
sVlemon_,_juice_of
p2217
g1409
sVcorn_chips
p2218
g444
sS'stir_fry_vegetables'
p2219
g2219
sVkosher_salt
p2220
g470
sVtart_green_apple
p2221
g168
sS'frozen_unsweetened_strawberries'
p2222
S'strawberries'
p2223
sVpita_pockets
p2224
g665
sVItalian_salad_dressing
p2225
g509
sVhot_mustard
p2226
Vbrown_mustard
p2227
sS'self_-_raising_flour'
p2228
g702
sVhot_dogs
p2229
g558
sVunsweetened_chocolate_squares
p2230
g1493
sg461
g461
sS'skinless_chicken'
p2231
g60
sg1326
g1326
sVwhole_boneless_chicken_breast
p2232
g344
sVgreen_onion
p2233
g1377
sS'sugar_syrup'
p2234
g2234
sg217
g217
sVfresh_dill_weed
p2235
g461
sg24
g24
sg626
g626
sVfresh_basil
p2236
g987
sg1986
g1986
sg2
g2
sS'deli_ham'
p2237
g2237
sVcatsup
p2238
g337
sS'red_potatoes'
p2239
g5
sVground_sausage
p2240
g280
sS'plum_jam'
p2241
g2241
sS'fruit_cocktail'
p2242
g2242
sS'dried_Chinese_mushrooms'
p2243
g1028
sS'Oreo_cookies'
p2244
g2244
sVpickled_jalapeno_pepper
p2245
g68
sS'cherry_pie_filling'
p2246
g1613
sg231
g231
sg237
g237
sVhot_water
p2247
g984
sS'whole_wheat_penne'
p2248
S'penne'
p2249
sS'toasted_breadcrumbs'
p2250
g158
sS'mashed_potatoes'
p2251
g2251
sg2146
g2146
sS'Roses_lime_juice'
p2252
g628
sS'tasty_cheese'
p2253
g522
sS'walnut_oil'
p2254
g2254
sVchicken_leg
p2255
g667
sVsweet_chocolate
p2256
g431
sS'large_shrimp'
p2257
g1179
sS'brown_basmati_rice'
p2258
g127
sVmarinated_artichoke
p2259
g1247
sS'low_-_fat_strawberry_yogurt'
p2260
g653
sg1233
g1233
sS'albacore_tuna'
p2261
g634
sVgreen_grapes
p2262
g580
sVlong_grain_brown_rice
p2263
g127
sS'arrowroot'
p2264
g2264
sS'red_jalapeno_chile'
p2265
g1026
sVpopped_corn
p2266
S'popcorn'
p2267
sg1852
g1852
sg960
g960
sS'garlic_bread'
p2268
g2268
sVfrozen_cut_okra
p2269
g141
sVcandy_bars
p2270
g2270
sVreduced_-_fat_sharp_cheddar_cheese
p2271
g275
sVGuinness_stout
p2272
g981
sVdark_sesame_oil
p2273
g564
sVfresh_bay_leaves
p2274
g729
sS'sweet_chili_sauce'
p2275
g392
sS'single_cream'
p2276
g732
sS'key_lime_zest'
p2277
g1242
sS'no_-_boil_lasagna_noodles'
p2278
g172
sVItalian_turkey_sausage
p2279
g425
sS'Polish_sausage'
p2280
g2280
sS'corn_kernels'
p2281
g205
sS'buttercream_frosting'
p2282
g2282
sVbread_dough
p2283
g2283
sS'sorghum'
p2284
g2284
sS'pastrami'
p2285
g2285
sS'frozen_apple_juice_concentrate'
p2286
g586
sS'Velveeta_reduced_fat_cheese_product'
p2287
g812
sVdried_basil_leaves
p2288
g987
sS'chocolate_shavings'
p2289
g431
sS'passion_fruit'
p2290
g2290
sS'chanterelle_mushrooms'
p2291
g369
sVpizza_crusts
p2292
g1944
sS'candies'
p2293
g2293
sVsweet_paprika
p2294
g1052
sS'lamb_stew_meat'
p2295
g2295
sg434
g434
sS'raspberry_liqueur'
p2296
g442
sS'hickory_smoked_bacon'
p2297
g32
sg1106
g1106
sS'glaze'
p2298
g2298
sVvegetable_stock_cubes
p2299
g91
sS'textured_vegetable_protein'
p2300
g2300
sS'pork_rinds'
p2301
g2301
sVlong_-_grain_white_rice
p2302
g127
sS'rose_wine'
p2303
g2303
sVfrozen_mixed_berries
p2304
Vmixed_berries
p2305
sS'sliced_apples'
p2306
g168
sVred_wine_vinegar
p2307
g1394
sg649
g649
sVcanned_crushed_pineapple
p2308
g504
sS'apple_Schnapps'
p2309
g1921
sS'corkscrew_macaroni'
p2310
g88
sVcoconuts
p2311
g454
sS'catfish'
p2312
g2312
sVdried_pinto_bean
p2313
g42
sS'grain'
p2314
g2314
sVbaked_corn_tortilla_chips
p2315
g444
sVreduced_-_sodium_fat_-_free_chicken_broth
p2316
g250
sS'beef_stock_cube'
p2317
g250
sVfast_rising_yeast
p2318
g52
sVcooked_chicken_breasts
p2319
g60
sVSeason_-_All_salt
p2320
g118
sS'white_bread_flour'
p2321
g139
sS'tzatziki'
p2322
g2322
sVrice_wine_vinegar
p2323
g296
sS'green_curry_paste'
p2324
g2324
sVrose_petal
p2325
Vrose_petals
p2326
sVdry_-_roasted_unsalted_peanuts
p2327
g1852
sVunsifted_flour
p2328
g139
sg1567
g1567
sVbuttered_bread_crumb
p2329
g158
sS'mixed_nuts'
p2330
g2330
sS'fruit'
p2331
g300
sS'romaine_lettuce_hearts'
p2332
g2332
sVcanned_pineapple_chunks
p2333
g504
sS'kaiser_rolls'
p2334
g367
sVfresh_sage_leaves
p2335
g802
sS'brown_rice'
p2336
g127
sS'fresh_figs'
p2337
g86
sVhalibut_fillet
p2338
S'fish_fillets'
p2339
sVstrawberry_Jell_-_O_gelatin_dessert
p2340
g62
sVpeach
p2341
g1086
sS'cream_of_potato_soup'
p2342
g2342
sVdried_prune
p2343
g214
sVamaretti_cookie
p2344
g1321
sVskinless_halibut_fillet
p2345
g2339
sS'Russian_salad_dressing'
p2346
g2346
sS'napa_cabbage'
p2347
g2347
sS'PHILADELPHIA_Neufchatel_Cheese'
p2348
g297
sg186
g186
sVsun_-_dried_tomato
p2349
g434
sS'puree'
p2350
g2350
sg1815
g1815
sS'lemon_curd'
p2351
g2351
sS'grappa'
p2352
g2352
sS'curry_leaves'
p2353
g2353
sS'pureed_chipotle_chiles'
p2354
g26
sS'cooked_brown_rice'
p2355
g127
sVblanched_almonds
p2356
g1429
sVfine_dry_breadcrumbs
p2357
g158
sVshiitake_mushroom_caps
p2358
g1759
sVroasted_almonds
p2359
g1895
sVcorn_tortilla_strips
p2360
g444
sVmashed_sweet_potato
p2361
Vmashed_sweet_potatoes
p2362
sVmixed_dried_fruit
p2363
g1403
sS'cheese_sauce'
p2364
g2364
sS'bucatini_pasta'
p2365
g2365
sg1770
g1770
sS'chocolate_ice_cream'
p2366
g2366
sS'soy_flour'
p2367
g2367
sg1043
g1043
sS'chocolate_cookie_crumbs'
p2368
g2368
sS'Velveeta_Mexican_cheese'
p2369
g767
sS'chicken_legs_with_thigh'
p2370
g667
sg2227
g2227
sVdried_chipotle_chile
p2371
g26
sVnonfat_sour_cream
p2372
g113
sg806
g806
sVboneless_chicken_breast
p2373
g344
sVfresh_shrimp
p2374
g1179
sVfresh_black_pepper
p2375
g76
sVflax_seed
p2376
g46
sg2071
g2071
sS'onion_salt'
p2377
g2377
sS'peanut_butter_chips'
p2378
g2378
sVsemi_-_sweet_chocolate_baking_squares
p2379
g604
sg257
g257
sVEnglish_cucumbers
p2380
g448
sS'hing'
p2381
S'asafoetida_powder'
p2382
sVold_cheddar_cheese
p2383
g275
sVbeef_t_-_bone_steak
p2384
g271
sVsalt_and_black_pepper
p2385
Vsalt_and_pepper
p2386
sg571
g571
sS'Cool_Whip_Lite'
p2387
g846
sVnon_-_fat_powdered_milk
p2388
g740
sVidaho_potato
p2389
g5
sg420
g420
sS'dried_orange_peel'
p2390
g2390
sVHeinz_ketchup
p2391
g337
sVkitchen_twine
p2392
g1495
sVtruffles
p2393
g2393
sVprepared_graham_cracker_crusts
p2394
g1882
sVwhole_berry_cranberry_sauce
p2395
g995
sS'Hunts_tomato_sauce'
p2396
S'tomato_sauce'
p2397
sS'French_onion_dip'
p2398
g2398
sVslivered_almonds
p2399
g1895
sS'flaked_coconut'
p2400
g454
sVchampagne_vinegar
p2401
g2401
sVpastry_shells
p2402
g292
sg537
g537
sVlime_slices
p2403
g619
sVclam
p2404
g976
sS'green_food_coloring'
p2405
g2405
sg156
g156
sS'frozen_French_-_cut_green_beans'
p2406
g228
sVboiling_potato
p2407
g5
sVcumin_powder
p2408
g1914
sVchicken_fillet
p2409
g1567
sVbaking_apple
p2410
g168
sS'tuna_in_olive_oil'
p2411
g965
sVoxtail
p2412
Voxtails
p2413
sS'frozen_raspberries'
p2414
g428
sVblackberry
p2415
g1049
sVgraham_cracker_square
p2416
g435
sS'frozen_shrimp'
p2417
g1179
sg965
g965
sS'condensed_cream_of_mushroom_soup'
p2418
g1162
sS'straw_mushrooms'
p2419
g369
sS'sweetened_coconut'
p2420
g454
sVmeringues
p2421
g2421
sVblack_tea_bags
p2422
Vblack_tea
p2423
sS'cooked_lentils'
p2424
g309
sg1802
g1802
sg621
g621
sVallspice_berry
p2425
g515
sVwooden_skewer
p2426
g491
sS'cod_fish_fillets'
p2427
g2339
sS'skinless_chicken_thighs'
p2428
g667
sVrefrigerated_crescent_dinner_rolls
p2429
g1534
sg2041
g2041
sVgraham_cracker_squares
p2430
g435
sVlobster
p2431
g410
sg1377
g1377
sVwhite_mushroom
p2432
g369
sS'buffalo_mozzarella'
p2433
g690
sS'powdered_saffron'
p2434
g354
sg52
g52
sg1108
g1108
sS'live_lobsters'
p2435
g410
sg374
g374
sVmixed_berry
p2436
g2305
sS'black_cardamom_pods'
p2437
g647
sVbaby_shrimp
p2438
g1179
sS'smoked_bacon'
p2439
g32
sS'russet_potatoes'
p2440
g5
sVextra_-_large_egg
p2441
g322
sVJack_Daniels_Whiskey
p2442
g790
sg2128
g2128
sS'candied_orange_peel'
p2443
g823
sS'chips'
p2444
g2444
sg1142
g1142
sVcooked_spaghetti
p2445
g276
sVdry_oregano_leaves
p2446
g621
sS'whole_wheat_pizza_dough'
p2447
g2165
sS'yellow_cornmeal'
p2448
g265
sVrubbed_sage
p2449
g802
sVcoarse_salt
p2450
g470
sS"Reese's_pieces"
p2451
g2021
sS'wheat'
p2452
g2452
sVcrouton
p2453
g1692
sS'dark_Creme_de_Cacao'
p2454
g1972
sVsmoked_kielbasa
p2455
g2280
sS'campari'
p2456
g442
sVtuna_steak
p2457
g634
sVpure_maple_syrup
p2458
g196
sS'garlic_and_herb_seasoning'
p2459
g2459
sg1873
g1873
sS'canned_pinto_beans'
p2460
g42
sVoriental_sesame_oil
p2461
g564
sVdry_dill_weed
p2462
g461
sVred_seedless_grapes
p2463
g580
sVdried_rosemary
p2464
g9
sS'double_crust_pie_crust'
p2465
g292
sS'brown_sugar_substitute'
p2466
g253
sVItalian_turkey_sausage_link
p2467
g425
sVnatural_bran
p2468
Vwheat_bran
p2469
sS'hard_candies'
p2470
g2293
sVbaby_spinach_leaves
p2471
g643
sS'stewing_beef'
p2472
g58
sS'Clamato_juice'
p2473
g2473
sS'white_chicken_meat'
p2474
g344
sVhamburger_patty
p2475
Vhamburger_patties
p2476
sS'orange_slices'
p2477
g1200
sVGerman_sweet_chocolate
p2478
g431
sVchocolate_wafer
p2479
Vchocolate_wafers
p2480
sVgreat_northern_beans
p2481
g496
sS'wild_rice'
p2482
g127
sS'blue_food_coloring'
p2483
g2483
sVmarshmallow_creme
p2484
g2484
sS'small_white_beans'
p2485
g1956
sVdry_basil_leaves
p2486
g987
sVbaby_bella_mushroom
p2487
g593
sVfresh_tomato
p2488
g143
sS'tawny_port'
p2489
g2014
sVCheese_Whiz
p2490
g937
sg273
g273
sVgoji_berry
p2491
g1561
sS'boneless_leg_of_lamb'
p2492
g449
sVcanola_oil_cooking_spray
p2493
g401
sg1247
g1247
sg2043
g2043
sVItalian_plum_tomato
p2494
g143
sS'celeriac'
p2495
g2495
sVorange_wedge
p2496
g1200
sVchocolate_wafer_cookie
p2497
g2480
sVpurple_onions
p2498
g1536
sS'white_bread'
p2499
g56
sS'radish_sprouts'
p2500
g2500
sVfresh_ground_pepper
p2501
g76
sVlemon_wedge
p2502
S'lemons'
p2503
sVlobster_tail
p2504
g410
sS'low_-_fat_chicken_broth'
p2505
g412
sVchocolate_wafer_cookies
p2506
g2480
sS'lebanese_cucumber'
p2507
g448
sVCornish_hens
p2508
g2508
sS'dried_chipotle_chiles'
p2509
g26
sS'fresh_carrots'
p2510
g440
sVhot_fudge_topping
p2511
Vhot_fudge
p2512
sS'imitation_crab_sticks'
p2513
g1582
sS'peach_slices'
p2514
g1086
sVsponge_cake
p2515
Vsponge_cakes
p2516
sVitalian_tomato
p2517
g143
sS'broccoli_stems'
p2518
g611
sS'fish'
p2519
g2519
sVmushroom_cap
p2520
g1509
sS'boneless_chicken_thighs'
p2521
g667
sS'brown_lentils'
p2522
g309
sVhickory_flavored_barbecue_sauce
p2523
Vbarbecue_sauce
p2524
sS'garlic_heads'
p2525
g1263
sS'dried_sweetened_cranberries'
p2526
g1830
sg1205
g1205
sVfresh_garlic_clove
p2527
g1263
sg2179
g2179
sS'mustard_greens'
p2528
g2528
sg278
g278
sg1008
g1008
sVunsalted_dry_roasted_peanuts
p2529
g1852
sVtaco_sauce
p2530
g1225
sg885
g885
sS'light_butter'
p2531
g671
sVunsalted_margarine
p2532
g316
sVmedium_raw_shrimp
p2533
g1179
sVwhite_kidney_beans
p2534
g496
sVchicken_thigh_fillet
p2535
g667
sVsweetened_flaked_coconut
p2536
g454
sS'light_whipped_topping'
p2537
g136
sVbroad_egg_noodles
p2538
g199
sS'saltine_crumbs'
p2539
g571
sVstrawberry
p2540
g2223
sVgherkins
p2541
g1728
sVbouillon
p2542
g250
sS'low_-_fat_milk'
p2543
g360
sg265
g265
sS'matzo_meal'
p2544
g2544
sS'boiling_water'
p2545
g984
sVsweet_potato
p2546
g999
sVEnglish_toffee_bits
p2547
Vtoffee_pieces
p2548
sS'lightly_-_salted_butter'
p2549
g671
sS'plum_sauce'
p2550
g2550
sS'cooked_boneless_skinless_chicken_breasts'
p2551
g344
sS'pear_halves'
p2552
g1237
sVsherry_wine
p2553
g860
sS'unsweetened_applesauce'
p2554
g2554
sVlink_sausage
p2555
g280
sS'egg_noodles'
p2556
g199
sVvanilla_whey_protein_powder
p2557
g208
sS'fine_egg_noodles'
p2558
g199
sS'ground_turmeric'
p2559
S'turmeric'
p2560
sS'habanero_sauce'
p2561
g392
sS'tomato_juice'
p2562
g2562
sS'bartlett_pears'
p2563
g1237
sVoregano_sprigs
p2564
g621
sS'cherry_brandy'
p2565
g797
sVmilk_chocolate_candy_bar
p2566
g431
sg732
g732
sS'seitan'
p2567
g2567
sVscotch_bonnet_pepper
p2568
g649
sS'lemon_thyme'
p2569
g156
sS'chicken_sausage'
p2570
g2570
sS'navel_oranges'
p2571
g1200
sVhot_dog
p2572
g558
sVKikkoman_soy_sauce
p2573
g184
sS'light_chunk_tuna_in_water'
p2574
g965
sS'raspberry_vodka'
p2575
g326
sVred_grapefruit
p2576
g529
sVbeef_ribs
p2577
g2577
sS'chunk_pineapple'
p2578
g504
sVEnglish_peas
p2579
g1661
sVyellow_wax_bean
p2580
g770
sVItalian_cheese_blend
p2581
g522
sS'seasoning_salt'
p2582
g118
sS'salted_peanuts'
p2583
g1852
sVred_wine
p2584
g1372
sVItalian_style_breadcrumbs
p2585
g158
sS'ground_fenugreek'
p2586
g2586
sVBaileys_Irish_Cream
p2587
Virish_cream
p2588
sS'salt_pork'
p2589
g2589
sS'red_food_coloring'
p2590
g2590
sVpear
p2591
g1237
sg1661
g1661
sVdill_seed
p2592
Vdill_seeds
p2593
sS'dashi'
p2594
S'dashi_stock'
p2595
sVturkey_giblets
p2596
Vturkey_meat
p2597
sg797
g797
sVorange_flower_water
p2598
g2598
sVground_paprika
p2599
g1052
sVchicken_breast
p2600
g344
sS'rice_noodles'
p2601
g2601
sg20
g20
sVdry_crushed_red_pepper
p2602
g66
sVwhite_chocolate_baking_squares
p2603
g958
sg855
g855
sS'bread_flour'
p2604
g139
sVfresh_Brussels_sprout
p2605
g1717
sS'frozen_sweetened_strawberries'
p2606
g2223
sVwhite_fish_fillets
p2607
g2339
sVyellow_bell_pepper
p2608
g537
sS'roasted_turkey'
p2609
g2609
sVpersimmons
p2610
g2610
sVunsweetened_baking_cocoa
p2611
g389
sVPHILADELPHIA_Chive_&_Onion_Cream_Cheese_Spread
p2612
g645
sVdried_pasilla_peppers
p2613
g66
sS'anise_seed'
p2614
g332
sVnon_-_fat_vanilla_yogurt
p2615
g1530
sS'chicken_fat'
p2616
g2616
sVJiffy_cornbread_mix
p2617
g278
sS'Simply_Potatoes_Traditional_Mashed_Potatoes'
p2618
g2251
sS'light_soy_sauce'
p2619
g184
sS'cauliflower_florets'
p2620
g527
sVwatercress_leaves
p2621
g772
sS'macaroni_and_cheese_mix'
p2622
g2622
sS'table_cream'
p2623
g732
sVcashew_pieces
p2624
g830
sVwalnut_halves
p2625
g715
sVchicken_cutlet
p2626
g1168
sVextra_large_eggs
p2627
g322
sS'passion_fruit_pulp'
p2628
g2290
sS'whole_wheat_breadcrumbs'
p2629
g158
sVKRAFT_Zesty_Italian_Dressing
p2630
g509
sS'vegemite'
p2631
g2631
sS'salmon_roe'
p2632
g2632
sS'ale'
p2633
g981
sVcanned_unsweetened_coconut_milk
p2634
g547
sV2_%_cheddar_cheese
p2635
g275
sVbutter_flavoring
p2636
g2636
sS'frozen_blueberries'
p2637
g2067
sg1409
g1409
sS'popped_popcorn'
p2638
g2267
sVfrying_chickens
p2639
g60
sVmild_cheddar_cheese
p2640
g275
sVpoppy_seed
p2641
Vpoppy_seeds
p2642
sVmascarpone
p2643
g2643
sVwhole_boneless_skinless_chicken_breasts
p2644
g344
sVbaking_potato
p2645
g5
sS'whole_grain_buns'
p2646
g237
sVEnglish_seedless_cucumber
p2647
g448
sVfour_-_cheese_Mexican_blend_cheese
p2648
g767
sS'thickened_cream'
p2649
g732
sVpreserves
p2650
Vjam
p2651
sg2067
g2067
sVtarragon_leaves
p2652
g836
sS'rib_eye_steaks'
p2653
g271
sVchipotle_chiles
p2654
g26
sS'turkey_gravy'
p2655
g2655
sVagave_syrup
p2656
VAgave
p2657
sVcream_-_style_cottage_cheese
p2658
g365
sg1168
g1168
sVpork_chop
p2659
g44
sS'fresh_lemongrass'
p2660
S'lemongrass'
p2661
sVwhole_chicken_breasts
p2662
g344
sVchorizo_sausage
p2663
g2663
sVgreen_sweet_pepper
p2664
g839
sS'Kraft_Grated_Parmesan_Cheese'
p2665
g1969
sVbeef_base
p2666
g562
sVsolid_shortening
p2667
g231
sVpork_fillet
p2668
g1395
sg531
g531
sVgraham_cracker_pie_crust
p2669
g1882
sS'oyster_mushrooms'
p2670
g369
sVbeef_bouillon_powder
p2671
g562
sVjalapeno_pepper
p2672
g68
sVgreen_plantains
p2673
g446
sVdiced_fire_-_roasted_tomatoes
p2674
g49
sVseedless_watermelon
p2675
g852
sS'citrus_-_infused_vodka'
p2676
g326
sS'yukon_gold_potatoes'
p2677
g5
sS'instant_rice'
p2678
g127
sVdried_bay_leaves
p2679
g729
sVkidney_bean
p2680
g284
sg1386
g1386
sS'smoked_mozzarella_cheese'
p2681
g690
sVapple_brandy
p2682
g797
sS'Southern_Comfort'
p2683
g2683
sVpart_-_skim_mozzarella_cheese
p2684
g690
sS'pineapple_preserves'
p2685
g2685
sS'baby_bok_choy'
p2686
S'bok_choy'
p2687
sVroma_tomatoes
p2688
g143
sVsweet_pickle_juice
p2689
g672
sVpork_back_ribs
p2690
g886
sS'red_raspberries'
p2691
g428
sS'imitation_crabmeat'
p2692
g1582
sVreduced_-_fat_vanilla_wafer
p2693
g96
sVessential_oil
p2694
g1896
sg1114
g1114
sVdutch_process_cocoa
p2695
g389
sS'wheat_germ'
p2696
g2696
sVmonterey_jack_pepper_cheese
p2697
g1043
sVranch_salad_dressing
p2698
g568
sS'lemon_flavoring'
p2699
g1443
sS'veggie_crumbles'
p2700
g2700
sVwhole_cardamom_pod
p2701
g647
sS'Pernod'
p2702
g2702
sS'refrigerated_chocolate_chip_cookie_dough'
p2703
S'cookie_dough'
p2704
sVwhite_potatoes
p2705
g5
sVcookies
p2706
g2706
sg1759
g1759
sS'fresh_button_mushrooms'
p2707
g369
sg2397
g2397
sg898
g898
sVhard_roll
p2708
g367
sVtoasted_almonds
p2709
g1895
sS'sifted_flour'
p2710
g139
sVdried_sage
p2711
g802
sVThai_chile
p2712
g1026
sVreduced_-_fat_mayonnaise
p2713
g855
sVchicken_drummettes
p2714
g541
sS'Greek_yogurt'
p2715
g608
sg44
g44
sS'lollipop_sticks'
p2716
g2716
sVwhite_wine_vinegar
p2717
g2401
sVdry_roasted_salted_peanuts
p2718
g1852
sVsweet_bell_peppers
p2719
g377
sVorange_twist
p2720
g2720
sVsemi_-_sweet_chocolate_chips
p2721
g63
sS'juice'
p2722
S'fruit_juice'
p2723
sVCointreau_liqueur
p2724
g1526
sS'paraffin_wax'
p2725
g2725
sVbird_chile
p2726
g1026
sS'carob_chips'
p2727
g2727
sS'sun_-_dried_tomato_dressing'
p2728
g2728
sVEnglish_mustard
p2729
g2227
sS'Kraft_Mexican_Style_Finely_Shredded_Four_Cheese'
p2730
g767
sS'low_-_fat_Greek_yogurt'
p2731
g608
sVpimento_stuffed_olive
p2732
g2
sS'carrot_sticks'
p2733
g2733
sg360
g360
sVwalnut_pieces
p2734
g715
sVpepperoni_slice
p2735
g1927
sS'nonfat_cottage_cheese'
p2736
g365
sVground_black_pepper
p2737
g76
sS'cipollini_onions'
p2738
g7
sg1437
g1437
sg995
g995
sg1273
g1273
sS'peach_pie_filling'
p2739
g1613
sVSpanish_peanut
p2740
g1852
sVhoneydew_melon
p2741
g1238
sS'garlic_&_herb_spreadable_cheese'
p2742
g2742
sVcinnamon_-_sugar_mixture
p2743
Vcinnamon_sugar
p2744
sVwonton_wrapper
p2745
g1490
sVminiature_semisweet_chocolate_chips
p2746
g63
sS'white_Creme_de_Cacao'
p2747
g1972
sS'ground_mace'
p2748
g2748
sS'instant_malted_milk_powder'
p2749
g2749
sVdried_fig
p2750
g1271
sVHeath_candy_bar
p2751
g325
sS'cashew_nuts'
p2752
g830
sVdried_brown_lentils
p2753
g309
sS'peanut_sauce'
p2754
g2754
sVcooked_boneless_skinless_chicken_breast
p2755
g344
sS'medium_grain_rice'
p2756
g127
sS'vegetable_bouillon_cubes'
p2757
g91
sg924
g924
sVdried_fruits
p2758
g1403
sVbrie_cheese
p2759
g2759
sVrum_flavoring
p2760
g235
sg2135
g2135
sS'cream_of_tartar'
p2761
g2761
sg448
g448
sg66
g66
sS'candied_citron_peel'
p2762
g823
sVFrench_onion_soup
p2763
g2763
sS'hot_coffee'
p2764
g468
sVseasoned_rice_wine_vinegar
p2765
g296
sS'crisp_bacon'
p2766
g32
sVThai_basil
p2767
g987
sS'salad_greens'
p2768
g2768
sS'seasoned_croutons'
p2769
g1692
sVlime_wedge
p2770
g619
sVfrozen_mixed_vegetables
p2771
Vmixed_vegetables
p2772
sS'Mexican_oregano'
p2773
g621
sS'orecchiette'
p2774
g2774
sVbeef_stew_meat
p2775
g58
sS'fudge_cake_mix'
p2776
g314
sVplain_low_-_fat_yogurt
p2777
g608
sS'bonito_flakes'
p2778
g2778
sS'sherbet'
p2779
g2779
sVartificial_sweetener
p2780
g374
sS'dried_ancho_chile_powder'
p2781
g115
sVsweet_soy_sauce
p2782
g184
sVdry_breadcrumbs
p2783
g158
sS'drambuie'
p2784
g2784
sVcaraway_seeds
p2785
g2785
sS'apple_juice_concentrate'
p2786
g586
sg1956
g1956
sVnectarine
p2787
Vnectarines
p2788
sVlong_-_grain_rice
p2789
g127
sVdeep_dish_pie_shells
p2790
g292
sVfrozen_pink_lemonade_concentrate
p2791
g827
sS'skinless_halibut_fillets'
p2792
g2339
sS'instant_tea'
p2793
g898
sVgreen_sweet_peppers
p2794
g839
sVruby_red_grapefruit_juice
p2795
g1273
sVveal_shanks
p2796
g2796
sS'mache'
p2797
g2797
sS'strawberry_ice_cream'
p2798
g2798
sVdried_apricot
p2799
g181
sg1969
g1969
sVrye_whiskey
p2800
g790
sVprepared_mustard
p2801
g630
sg1237
g1237
sVchicken_bouillon_cubes
p2802
g412
sVhot_red_chili_pepper
p2803
g1026
sVpineapple_chunk
p2804
g504
sS'red_miso'
p2805
S'miso'
p2806
sS'stout_beer'
p2807
g981
sS'catfish_fillets'
p2808
g2339
sVreduced_-_fat_peanut_butter
p2809
g761
sVcaramel_ice_cream_topping
p2810
g1967
sVfast_rise_yeast
p2811
g52
sVfresh_Brussels_sprouts
p2812
g1717
sS'adzuki_beans'
p2813
g2813
sVgrapeseed_oil
p2814
g15
sS'roasted_unsalted_peanuts'
p2815
g1852
sVbleu_cheese_salad_dressing
p2816
g568
sVwhole_cumin_seeds
p2817
Vcumin_seeds
p2818
sS'lemon_gelatin'
p2819
g62
sVboneless_pork_butt
p2820
g456
sg705
g705
sg474
g474
sVstick
p2821
g1370
sVlemons
p2822
g2503
sS'grapefruit_zest'
p2823
g857
sVasparagus_tips
p2824
g652
sVwhite_Karo
p2825
g290
sVsultana
p2826
g1112
sVlemon_slices
p2827
g2503
sVunbaked_pie_crusts
p2828
g292
sS'carrot_juice'
p2829
g2829
sS'ziti_pasta'
p2830
g2830
sg485
g485
sS'roasted_garlic'
p2831
g1263
sVsoft_tofu
p2832
g906
sVlight_brown_sugar
p2833
g253
sVdiced_tomatoes_with_green_chilies
p2834
g1520
sVseasoned_dry_bread_crumbs
p2835
g158
sVblanched_almond
p2836
g1429
sS'pork_belly'
p2837
g2837
sg34
g34
sVchocolate_bar
p2838
g431
sS'yellow_potatoes'
p2839
g5
sS'frozen_pizza_dough'
p2840
g2165
sVprawns
p2841
g1179
sS'chinese_noodles'
p2842
g199
sg2548
g2548
sVblanched_slivered_almond
p2843
g1895
sVroast_beef
p2844
g2844
sVbrown_mustard_seeds
p2845
g89
sS'hamburger'
p2846
g149
sg1512
g1512
sS'basmati_rice'
p2847
g127
sVcorn_kernel
p2848
g205
sS'Anjou_pear'
p2849
g1237
sS'canned_tomato_sauce'
p2850
g2397
sS'low_-_fat_buttermilk'
p2851
S'buttermilk'
p2852
sVpenne_rigate
p2853
g2249
sg319
g319
sS'white_peppercorns'
p2854
g722
sS'long_grain_and_wild_rice_blend'
p2855
g127
sg2818
g2818
sVfresh_carrot
p2856
g440
sVhorseradish_root
p2857
g1198
sS'fingerling_potatoes'
p2858
g5
sS'light_cream_cheese'
p2859
g645
sVgranulated_onion
p2860
Vonion_powder
p2861
sVtop_sirloin_steaks
p2862
g775
sS'heavy_cream'
p2863
g732
sS'lobster_meat'
p2864
g2864
sVlow_-_fat_cheese
p2865
g275
sS'pina_colada_nonalcoholic_drink_mix'
p2866
g2866
sVRoquefort_cheese
p2867
g660
sVEnglish_muffin
p2868
g1047
sS'grilled_chicken_breasts'
p2869
g344
sS'bologna'
p2870
g2870
sVsalt_&_pepper
p2871
g2386
sVsemisweet_chocolate_chips
p2872
g63
sS'fresh_coconut'
p2873
g454
sVblack_walnuts
p2874
g715
sVprocessed_cheese_food
p2875
g812
sS'matzos'
p2876
g2876
sg85
g85
sVsoft_breadcrumbs
p2877
g158
sVcandy_bar
p2878
g2270
sS'flax_seed_oil'
p2879
g2879
sVhard_-_cooked_egg
p2880
g1227
sVdry_mustard
p2881
g2881
sS'frozen_orange_juice'
p2882
g423
sS'colby_cheese'
p2883
g2883
sVbrownie
p2884
g1344
sVdried_onion
p2885
g307
sS'frozen_non_-_dairy_topping'
p2886
g846
sS'low_-_fat_yogurt'
p2887
g608
sS'rotisserie_-_cooked_chicken'
p2888
g60
sVcatfish_fillet
p2889
g2339
sS'coffee_extract'
p2890
g2890
sg302
g302
sS'lean_beef'
p2891
g2891
sVfresh_thyme_sprig
p2892
g156
sVbratwursts
p2893
g2893
sS'dry_yeast'
p2894
g52
sVsoft_cream_cheese
p2895
g645
sg129
g129
sVdark_brown_sugar
p2896
g253
sVraw_rice
p2897
g127
sS'pea_shoots'
p2898
g2898
sVwax_paper
p2899
g2043
sVbreakfast_sausage
p2900
g280
sVamaretto_liqueur
p2901
g1772
sVegg
p2902
g322
sVseedless_European_cucumber
p2903
g448
sS'roasted_pistachios'
p2904
g2059
sg2560
g2560
sg2806
g2806
sg1257
g1257
sS'green_pepper_strips'
p2905
g839
sVfresh_green_chile
p2906
g1008
sVbutter_substitute
p2907
g316
sS'limoncello'
p2908
g2908
sVfresh_green_chilies
p2909
g1008
sS'mild_paprika'
p2910
g1052
sS'whole_wheat_couscous'
p2911
g248
sS'arbol_chiles'
p2912
g66
sS'orange_sections'
p2913
g1200
sVheirloom_tomato
p2914
g143
sg26
g26
sViceberg_lettuce
p2915
g408
sVfat_-_free_evaporated_milk
p2916
g70
sS'Asian_pear'
p2917
g1237
sVunsweetened_soymilk
p2918
g1832
sVmarinara_sauce
p2919
g1306
sS'guacamole'
p2920
g2920
sS'unsulphured_molasses'
p2921
g1080
sVwhole_corn
p2922
g205
sVtuna_in_water
p2923
g965
sS'98_%_fat_-_free_cream_of_chicken_soup'
p2924
S'cream_of_chicken_soup'
p2925
sVfast_-_rising_active_dry_yeast
p2926
g52
sS'lamb_rib_chops'
p2927
g2927
sV9_-_inch_pie_shell
p2928
g292
sVground_chuck
p2929
g149
sS'pink_peppercorns'
p2930
g722
sS'crusty_bread'
p2931
g56
sVunsifted_all_-_purpose_flour
p2932
g139
sS'lemon_pie_filling'
p2933
g1613
sVhot_green_chili_pepper
p2934
g1008
sS'cinnamon_raisin_bread'
p2935
g1667
sVpumpkin_pie_spice
p2936
Vpumpkin_spice
p2937
sVfresh_cracked_pepper
p2938
g76
sS'demi_-_glace'
p2939
g2939
sVsoda_cracker
p2940
g864
sS'skim_milk'
p2941
g360
sS'iceberg_lettuce_leaves'
p2942
g408
sVbeef_rib
p2943
g2577
sS'wasabi'
p2944
g2944
sVAccent_seasoning
p2945
g1642
sVcupcake
p2946
Vcupcakes
p2947
sVminced_garlic_clove
p2948
g1263
sVbulk_Italian_sausage
p2949
g145
sVvidalia_onions
p2950
g7
sS'short_-_grain_rice'
p2951
g127
sg560
g560
sS'london_broil_beef'
p2952
g2952
sS'rye_meal'
p2953
g2953
sVground_red_chili_pepper
p2954
g535
sVcorn_tortilla
p2955
Vcorn_tortillas
p2956
sS'boysenberries'
p2957
g2957
sS'unsalted_sunflower_seeds'
p2958
g577
sVsour_mix
p2959
g2959
sVminiature_chocolate_chips
p2960
g63
sS'candy_corn'
p2961
g2961
sS'star_fruit'
p2962
g2962
sg412
g412
sg2476
g2476
sVboneless_skinless_chicken_breast
p2963
g344
sS'unsalted_chicken_stock'
p2964
g250
sVapple_cider
p2965
g1188
sS'spelt_flour'
p2966
g2966
sS'red_curry_paste'
p2967
g2967
sVdried_New_Mexico_chile
p2968
g66
sVfingerling_potato
p2969
g5
sVham_bones
p2970
Vham_bone
p2971
sVmozzarella_string_cheese
p2972
g690
sVbiscuits
p2973
g2973
sg595
g595
sS'honey_roasted_peanuts'
p2974
g1852
sS'orange_bitters'
p2975
g2975
sVfresh_edible_flower
p2976
g81
sg976
g976
sVskinless_chicken_thigh
p2977
g667
sS'mild_curry_powder'
p2978
g938
sS'chipotle_hot_sauce'
p2979
g392
sVcoriander_sprig
p2980
g233
sS'ground_buffalo_meat'
p2981
g2981
sS'oil'
p2982
g2982
sVsole_fillet
p2983
S'sole_fillets'
p2984
sS'mandarin_orange_segments'
p2985
g342
sVsugar_cube
p2986
g77
sVorange_blossom_water
p2987
g2598
sg667
g667
sVlight_oil
p2988
g169
sS'French_haricots_vert'
p2989
g228
sg2661
g2661
sVdried_apples
p2990
g2990
sVfresh_jalapeno_chilies
p2991
g68
sS'fresh_apricots'
p2992
g2065
sVboneless_beef_top_sirloin_steaks
p2993
g775
sg2305
g2305
sS'suet'
p2994
g2994
sVFrench's_French_fried_onions
p2995
g808
sVbeefsteak_tomato
p2996
g143
sS'turkey_carcass'
p2997
g2997
sVred_beets
p2998
g972
sVchicken_base
p2999
g412
sVNew_York_strip_steak
p3000
g271
sS'black_rice'
p3001
g3001
sVmicrowave_popcorn
p3002
g2267
sVveal_cutlet
p3003
g1670
sVgreen_onions_with_tops
p3004
g1377
sS'chipotle_chiles_in_adobo'
p3005
g26
sS'beet_leaves'
p3006
g3006
sVdried_tomatoe
p3007
g434
sVspanish_chorizo
p3008
g2663
sVpepperoni_slices
p3009
g1927
sg1967
g1967
sS'fresh_pears'
p3010
g1237
sVstew_meat
p3011
g58
sS'sugar_-_free_maple_syrup'
p3012
g196
sS'fresh_lemon'
p3013
g2503
sVcornstarch
p3014
g3014
sVcookie
p3015
g2706
sS'fat_-_free_sweetened_condensed_milk'
p3016
S'condensed_milk'
p3017
sS'baby_carrots'
p3018
g3018
sVsage_leaves
p3019
g802
sVtap_water
p3020
g984
sVcreamed_horseradish
p3021
g2041
sVpurple_cabbage
p3022
Vred_cabbage
p3023
sVTABASCO_brand_Chipotle_Pepper_Sauce
p3024
g392
sg3023
g3023
sg1560
g1560
sVdungeness_crabmeat
p3025
g1582
sS'chocolate_pudding_mix'
p3026
g38
sVdry_penne_pasta
p3027
g2249
sVdeli_roast_beef
p3028
g2844
sVfine_sugar
p3029
g93
sVsweet_basil
p3030
g987
sg2657
g2657
sVprepared_pizza_crust
p3031
g1944
sg1745
g1745
sS'chia_seeds'
p3032
g3032
sVwhite_corn_tortillas
p3033
g444
sVyellow_bell_peppers
p3034
g537
sS'plain_soymilk'
p3035
g1832
sS'vital_wheat_gluten'
p3036
g3036
sVmixed_salad_greens
p3037
g2768
sg342
g342
sVItalian_-_style_diced_tomatoes
p3038
g143
sS'kombu'
p3039
g3039
sS'bottled_clam_juice'
p3040
g669
sS'licorice'
p3041
g3041
sg1254
g1254
sVpineapple_chunks
p3042
g504
sVred_grapefruits
p3043
g529
sS'silken_tofu'
p3044
g906
sVsoy_margarine
p3045
g316
sg2423
g2423
sValfalfa_sprout
p3046
g1453
sVfresh_broccoli
p3047
g1745
sVrack_of_lamb
p3048
g358
sVserrano_chili
p3049
g68
sg933
g933
sVfresh_thyme_leaves
p3050
g156
sS'taro_root'
p3051
g3051
sS'cooked_lobster_meat'
p3052
g2864
sVbacon_piece
p3053
g107
sVrefrigerated_sugar_cookie_dough
p3054
g1711
sg113
g113
sVcrookneck_yellow_squash
p3055
g111
sVdiced_tomato
p3056
g257
sg701
g701
sVscallion
p3057
g1377
sg118
g118
sVground_chicken_breast
p3058
g517
sVkaffir_lime_leaves
p3059
g3059
sVboneless_round_steak
p3060
g271
sS'syrup'
p3061
g3061
sVbanana
p3062
S'bananas'
p3063
sS'smoked_turkey_sausage'
p3064
g425
sS'dark_beer'
p3065
g981
sVmeyer_lemon
p3066
g2503
sVciabatta_rolls
p3067
Vciabatta
p3068
sVblack_peppercorns
p3069
g722
sVdried_parsley
p3070
g282
sVcracked_black_pepper
p3071
g76
sVchorizo_sausages
p3072
g2663
sVfried_bacon
p3073
g32
sVitalian_seasoning_mix
p3074
g347
sg665
g665
sVfresh_lime_leaves
p3075
g3059
sVlarge_scallop
p3076
g1437
sVA_._1_._Original_Sauce
p3077
g1512
sS'cooked_sausage'
p3078
g280
sS'tortellini'
p3079
g3079
sVplain_fat_-_free_yogurt
p3080
g608
sg1605
g1605
sS'elbow_macaroni'
p3081
g88
sVcanned_mushroom_slices
p3082
g369
sVshredded_coconut
p3083
g454
sVsoft_taco_-_size_flour_tortillas
p3084
g1551
sVpie_crust
p3085
g292
sVgarlic_head
p3086
g1263
sS'haddock'
p3087
g601
sS'shell_macaroni'
p3088
g2146
sVcoffee_beans
p3089
g3089
sS'fresh_peas'
p3090
g1661
sVinstant_minced_onion
p3091
g307
sVfresh_dill_sprig
p3092
g461
sVcaster_sugar
p3093
g93
sS'vanilla_frosting'
p3094
g3094
sVextra_-_sharp_cheddar_cheese
p3095
g275
sVboneless_pork_loin_chops
p3096
g44
sVgoat's_cheese
p3097
g2184
sS'dipping_chocolate'
p3098
g431
sS'firm_tofu'
p3099
g906
sg896
g896
sVlasagna_noodle
p3100
g172
sVdried_herbs
p3101
g189
sg456
g456
sg1728
g1728
sS'lemonade_mix'
p3102
g239
sVseedless_cucumber
p3103
g448
sg300
g300
sVtamari_soy_sauce
p3104
g184
sS'butter_recipe_cake_mix'
p3105
g314
sVlemon_-_pepper_seasoning
p3106
g1646
sS'fennel_bulb'
p3107
g674
sVdark_sweet_cherry
p3108
g121
sS'orange_Jell_-_O'
p3109
g3109
sg811
g811
sVfresh_cherries
p3110
g121
sS'meringue_powder'
p3111
g3111
sVmild_salsa
p3112
g392
sVhot_red_pepper_sauce
p3113
g392
sS'tapenade'
p3114
g3114
sS'turmeric_powder'
p3115
g2560
sS'frozen_cherries'
p3116
g3116
sVdry_milk
p3117
g740
sS'golden_raisins'
p3118
g1112
sS'sugar_free_fat_free_instant_pudding_mix'
p3119
g38
sS'bottom_round_steaks'
p3120
g271
sVcooking_apple
p3121
g168
sg111
g111
sVham_steak
p3122
Vham_steaks
p3123
sS'boneless_turkey_breast'
p3124
g190
sg322
g322
sg1216
g1216
sg280
g280
sS'Snickers_candy_bars'
p3125
g3125
sg38
g38
sVcardamom_pod
p3126
g647
sVfine_salt
p3127
g470
sVchicken_parts
p3128
g1168
sVmixed_greens
p3129
g3129
sS'KNUDSEN_Light_Sour_Cream'
p3130
g113
sVfruit_preserves
p3131
g3131
sS'cocoa_nibs'
p3132
g3132
sVbittersweet_chocolate
p3133
g604
sS'Spanish_rice'
p3134
g3134
sVoyster
p3135
g418
sVsoybean_oil
p3136
g15
sVfresh_tarragon_leaves
p3137
g836
sV98_%_fat_-_free_cream_of_mushroom_soup
p3138
g1162
sVboneless_beef_top_sirloin_steak
p3139
g775
sVsweet_relish
p3140
g48
sVchocolate_-_covered_english_toffee_bar
p3141
Vchocolate_-_covered_english_toffee_bars
p3142
sS'roasted_sweet_red_peppers'
p3143
g736
sS'black_currants'
p3144
g3144
sS'fines_herbes'
p3145
g189
sS'reduced_-_fat_monterey_jack_cheese'
p3146
g1043
sS'tuna_fish'
p3147
g634
sVsemisweet_chocolate_pieces
p3148
g604
sVhot_chili_paste
p3149
S'chili_paste'
p3150
sVdry_onion_flakes
p3151
g307
sVseasoned_dry_bread_crumb
p3152
g158
sg178
g178
sS'low_fat_cottage_cheese'
p3153
g365
sVpomegranates
p3154
g3154
sg184
g184
sS'unsweetened_cocoa'
p3155
g389
sS'Catalina_dressing'
p3156
g3156
sVyellow_potato
p3157
g5
sVbeef_chuck
p3158
g1910
sS'35_%_cream'
p3159
g732
sVwhite_truffle_oil
p3160
Vtruffle_oil
p3161
sS'brewed_tea'
p3162
g898
sVnonfat_plain_yogurt
p3163
g608
sVcherry_preserves
p3164
g3164
sVItalian_plum_tomatoes
p3165
g143
sVinstant_espresso_powder
p3166
g1802
sVchicken_coating_mix
p3167
g1529
sVdark_raisins
p3168
g1112
sS'rice_paper_sheets'
p3169
g1024
sVgrouper_fillet
p3170
g384
sVred_capsicum
p3171
g476
sVsweet_Italian_sausage_links
p3172
g145
sg1301
g1301
sVSpanish_peanuts
p3173
g1852
sVvanilla_wafer
p3174
g96
sS'fat_-_free_half_-_and_-_half'
p3175
g3175
sS'chicken_fillets'
p3176
g1567
sVdark_red_kidney_beans
p3177
g284
sg387
g387
sVrefrigerated_pie_crusts
p3178
g292
sS'sofrito_sauce'
p3179
g3179
sS'canned_pumpkin'
p3180
g488
sg600
g600
sVliquid_honey
p3181
g892
sVapricot_jam
p3182
g17
sS'French_rolls'
p3183
g367
sVdried_onion_flakes
p3184
g307
sS'unsweetened_orange_juice'
p3185
g423
sg2642
g2642
sVred_capsicums
p3186
g476
sVvanilla_chip
p3187
Vvanilla_chips
p3188
sS'Frangelico'
p3189
g442
sg2021
g2021
sVlasagna_sheets
p3190
g172
sS'white_corn'
p3191
g205
sVbow_tie_pasta
p3192
Vfarfalle_pasta
p3193
sS'batter'
p3194
g3194
sVstrawberry_preserves
p3195
g988
sS'littleneck_clams'
p3196
g976
sS'xanthan_gum'
p3197
g3197
sS'glace_cherries'
p3198
g121
sVground_cayenne_pepper
p3199
g115
sVrosemary_sprig
p3200
g9
sVbosc_pear
p3201
g1237
sVgreen_lentil
p3202
g309
sS'whole_green_onions'
p3203
g1377
sVgreen_peppercorn
p3204
g722
sVfryer_chickens
p3205
g60
sg1229
g1229
sg208
g208
sS'buttered_bread_crumbs'
p3206
g158
sg1582
g1582
sVunseasoned_breadcrumbs
p3207
g158
sVdry_marsala_wine
p3208
g1695
sVcaramel
p3209
g97
sS'celery_salt'
p3210
g3210
sg2386
g2386
sVhot_Italian_sausages
p3211
g145
sS'Fiber_One_cereal'
p3212
g3212
sVbanana_pepper
p3213
g1412
sS'pine_nuts'
p3214
g3214
sS'frozen_raspberries_in_light_syrup'
p3215
g428
sVbreading
p3216
g56
sVwhite_distilled_vinegar
p3217
g1513
sS'pepper_bacon'
p3218
g3218
sVsambal_oelek
p3219
g3219
sS'Kraft_macaroni_and_cheese'
p3220
g2622
sVlemon_twists
p3221
g1282
sg808
g808
sVgrape_tomatoes
p3222
g1552
sVchunky_peanut_butter
p3223
g761
sVanaheim_chili
p3224
g66
sVGerman_chocolate_cake_mix
p3225
g314
sVorange_roughy_fillet
p3226
Vorange_roughy_fillets
p3227
sVhot_green_chili_peppers
p3228
g1008
sVred_pepper_flakes
p3229
g66
sS'sweet_white_wine'
p3230
g479
sVtart_shell
p3231
g1891
sVladyfinger
p3232
g1399
sS'linguica_sausage'
p3233
g3233
sS'achiote_paste'
p3234
g3234
sS'dandelion_greens'
p3235
g3235
sg1417
g1417
sVMexican_blend_cheese
p3236
g767
sVcilantro_leaves
p3237
g233
sVnutella
p3238
g3238
sVfresh_shiitake_mushrooms
p3239
g1759
sVdevil's_food_cake_mix
p3240
g314
sS'marinated_artichokes'
p3241
g1247
sS'whole_wheat_pasta'
p3242
g3242
sVwhole_wheat_tortilla
p3243
g2202
sVinstant_oatmeal
p3244
g243
sVyellow_sweet_onions
p3245
g146
sg1788
g1788
sVmini_chocolate_chip
p3246
g63
sS'meal'
p3247
g3247
sS'pico_de_gallo'
p3248
g3248
sVpita_breads
p3249
g665
sVhot_chicken_broth
p3250
g412
sg1330
g1330
sVsalad_oil
p3251
g15
sS'sole'
p3252
g2984
sg233
g233
sS'gyoza_skins'
p3253
g3253
sVquick_-_cooking_tapioca
p3254
g34
sVfat_-_free_low_-_sodium_chicken_broth
p3255
g250
sg2326
g2326
sVfresh_strawberries
p3256
g2223
sg1306
g1306
sS'jalapeno_juice'
p3257
g1294
sVmustard_powder
p3258
g2881
sS'frozen_spinach'
p3259
g643
sg630
g630
sS'fresh_tuna'
p3260
g634
sS"za'atar_spice_mix"
p3261
g3261
sVtomatoes_with_basil
p3262
g143
sS'chocolate_frosting'
p3263
g3263
sVdried_oregano
p3264
g621
sVwonton_skins
p3265
g1490
sS'yuzu'
p3266
g2503
sS'chocolate_liqueur'
p3267
g1972
sVbaby_artichoke
p3268
g1247
sS'chicken_stock_powder'
p3269
g250
sVinstant_lemon_pudding_mix
p3270
g38
sg438
g438
sS'angel_flake_coconut'
p3271
g454
sVeggplant
p3272
g1160
sg660
g660
sVraw_sugar
p3273
g1483
sS'enoki_mushrooms'
p3274
g369
sVwhite_fish_fillet
p3275
g2339
sS'desiccated_coconut'
p3276
g454
sVcandy_cane
p3277
g1182
sS'kirsch'
p3278
g797
sVturkish_bay_leaves
p3279
g729
sVlemon_slice
p3280
g2503
sS'lean_ground_sirloin'
p3281
g149
sVpimentos
p3282
g377
sS'potato_flour'
p3283
g3283
sVlamb_chop
p3284
g2128
sS'bosc_pears'
p3285
g1237
sS'ground_celery_seed'
p3286
g312
sS'trout_fillets'
p3287
g935
sS'French_baguettes'
p3288
g241
sS'sambuca_romana'
p3289
g442
sS'double_cream'
p3290
g732
sS'miniature_marshmallows'
p3291
g269
sS'muesli'
p3292
g3292
sS'cooked_broccoli'
p3293
g611
sVmahi_mahi_fillet
p3294
g1438
sVlow_sodium_chicken_broth
p3295
g250
sS'crema'
p3296
g732
sS'sultanas'
p3297
g1112
sS'provolone_cheese'
p3298
g3298
sS"Rose's_lime_juice"
p3299
g628
sVfresh_pepper
p3300
g76
sVSplenda_brown_sugar_blend
p3301
g253
sVpita_bread_round
p3302
g665
sS'warm_water'
p3303
g984
sS'dry_pasta'
p3304
g3304
sg2744
g2744
sg1979
g1979
sg3068
g3068
sS'boursin_cheese'
p3305
g645
sg2852
g2852
sVwasabi_paste
p3306
g2944
sVlemon_,_zest_of
p3307
g924
sVbeef_short_rib
p3308
g803
sS'tri_-_tip_steak'
p3309
g271
sVCrisco_shortening
p3310
g231
sg2788
g2788
sS'clarified_butter'
p3311
g3311
sg2588
g2588
sS'baby_beets'
p3312
g972
sS'pickling_cucumbers'
p3313
g448
sS'raw_cashews'
p3314
g830
sVgreen_tea_bags
p3315
g1347
sVboneless_chicken_breast_halves
p3316
g344
sVgranulated_sugar
p3317
g93
sS'dried_rice_noodles'
p3318
g2601
sS'marjoram'
p3319
g3319
sS'fillets'
p3320
g3320
sS'garlic_sauce'
p3321
g3321
sg1796
g1796
sS'serrano_chili_peppers'
p3322
g68
sS'fresh_mozzarella_cheese'
p3323
g690
sS'golden_delicious_apples'
p3324
g168
sg1895
g1895
sS'boston_butt'
p3325
g3325
sVcasing
p3326
Vcasings
p3327
sg164
g164
sVsoft_margarine
p3328
g316
sS'jalapeno_chile'
p3329
g68
sg874
g874
sVjumbo_eggs
p3330
g322
sVchocolate_graham_cracker
p3331
Vchocolate_graham_crackers
p3332
sS'graham_cracker_crumb_crust'
p3333
g1882
sS'frozen_peaches'
p3334
g1086
sVmarshmallow_cream
p3335
g2484
sS'white_miso'
p3336
g2806
sVkosher_salt_&_freshly_ground_black_pepper
p3337
g2386
sVcardamom_seed
p3338
g647
sVcapsicum
p3339
g377
sVdried_mustard
p3340
g2881
sVsmall_potatoes
p3341
g5
sVsmoked_gouda_cheese
p3342
g931
sVwhipping_cream
p3343
g732
sVItalian_seasoned_breadcrumbs
p3344
g158
sVdried_porcini_mushrooms
p3345
g1028
sVbeef_bouillon
p3346
g562
sS'browning_sauce'
p3347
g3347
sS'dry_rub_seasonings'
p3348
g118
sVsemisweet_chocolate_morsel
p3349
g63
sg839
g839
sg919
g919
sVapple_cider_vinegar
p3350
g1900
sVKRAFT_Shredded_Triple_Cheddar_Cheese_with_a_Touch_of_PHILADELPHIA
p3351
g275
sVcreamy_peanut_butter
p3352
g761
sVhot_Italian_sausage_link
p3353
g145
sVKraft_mayonnaise
p3354
g1653
sS'salad_leaves'
p3355
g2768
sg2861
g2861
sg1983
g1983
sVanchovy_fillet
p3356
g202
sVpineapple_slice
p3357
g504
sg2480
g2480
sVhead_of_broccoli
p3358
g611
sS'parmigiano_-_reggiano_cheese'
p3359
g1969
sVducks
p3360
Vduck
p3361
sS'mango_chutney'
p3362
g3362
sS'fettuccine_pasta'
p3363
g1296
sVred_hot_pepper_sauce
p3364
g392
sVwhole_chicken_breast
p3365
g344
sS'lean_pork'
p3366
g639
sS'vanilla_powder'
p3367
g703
sVblood_orange
p3368
g1200
sVfresh_parsley
p3369
g282
sS'quail'
p3370
g3370
sVunbaked_9_-_inch_pie_shells
p3371
g292
sVrib
p3372
Vribs
p3373
sS'okara'
p3374
g3374
sVbottom_round_steak
p3375
g271
sS'chestnuts'
p3376
g3376
sVhalibut_steaks
p3377
g2339
sg2723
g2723
sVvegetable_bouillon_cube
p3378
g91
sS'almond_essence'
p3379
g2008
sg623
g623
sg1898
g1898
sVcumin_seed
p3380
g2818
sVcountry_-_style_dijon_mustard
p3381
g695
sg767
g767
sVpeanut_butter_cup
p3382
g2021
sVdried_cranberries
p3383
g1830
sS'hollandaise_sauce'
p3384
g3384
sVmung_bean_sprouts
p3385
g273
sS'low_calorie_catalina_salad_dressing'
p3386
g3156
sVlong_grain_white_rice
p3387
g127
sVsalt_&_freshly_ground_black_pepper
p3388
g2386
sVmint_sprig
p3389
g623
sg1861
g1861
sVminiature_marshmallow
p3390
g269
sVflaked_sea_salt
p3391
g470
sVpomegranate
p3392
g3154
sS'English_cucumber'
p3393
g448
sS'celery_leaves'
p3394
g3394
sVTexas_toast_thick_bread
p3395
g56
sg263
g263
sS'tostadas'
p3396
g3396
sS'king_prawns'
p3397
g1179
sVcabernet_sauvignon_wine
p3398
g1372
sVcucumber
p3399
g448
sVchili_pepper
p3400
g68
sS'melon'
p3401
g3401
sS'sweet_rice_flour'
p3402
g2088
sValmond_liqueur
p3403
g1772
sVbrown_onion
p3404
g7
sVpeanut_butter_sandwich_cookies
p3405
g3405
sS'striped_bass'
p3406
g109
sVgreen_leaf_lettuce
p3407
g408
sVspices
p3408
g189
sS'curly_endive_lettuce'
p3409
g420
sS'sumac'
p3410
g3410
sS'white_hominy'
p3411
g1190
sVbaker's_semi_-_sweet_baking_chocolate
p3412
g604
sVcooked_sweet_potato
p3413
g999
sS'rock_shrimp'
p3414
g1179
sVgreen_creme_de_menthe
p3415
g1507
sVspiced_rum
p3416
g235
sS'butterscotch_chips'
p3417
g3417
sS'green_cardamoms'
p3418
g647
sVmarjoram_leaves
p3419
g3319
sVsemisweet_baking_chocolate
p3420
g604
sS'white_rice'
p3421
g127
sS'orange_drink_mix'
p3422
g239
sVfresh_ginger
p3423
g164
sVjerusalem_artichokes
p3424
g3424
sVgumbo_file
p3425
g2047
sS'serrano_ham'
p3426
g3426
sVButter_Flavor_Crisco
p3427
g231
sVwhole_cardamom_pods
p3428
g647
sVpreserved_lemon
p3429
g1993
sVcoriander_seed
p3430
g1569
sVhot_pepper_jelly
p3431
Vjalapeno_jelly
p3432
sg1900
g1900
sVreduced_-_sodium_beef_broth
p3433
g562
sVserrano_chili_pepper
p3434
g68
sVquick_-_cooking_oatmeal
p3435
g243
sVmilk_chocolate
p3436
g431
sVsandwich_bun
p3437
Vsandwich_buns
p3438
sVduck_leg
p3439
Vduck_legs
p3440
sVbrie_round
p3441
g2759
sg316
g316
sVnon_-_dairy_powdered_coffee_creamer
p3442
g933
sVseedless_grapes
p3443
g580
sS'lemon_,_rind_of'
p3444
g3444
sVvirgin_olive_oil
p3445
g169
sS'canned_white_beans'
p3446
g1956
sVfrozen_baby_lima_beans
p3447
g165
sVpimiento
p3448
g377
sS'alfredo_sauce'
p3449
g3449
sg2014
g2014
sVfresh_apricot
p3450
g2065
sS'Ritz_cracker_crumbs'
p3451
g3451
sS'reduced_-_fat_feta_cheese'
p3452
g255
sS'treacle'
p3453
g3061
sg628
g628
sS'almond_paste'
p3454
g3454
sS'fryer'
p3455
g3455
sVcranberry_juice_cocktail
p3456
g1278
sS'frozen_fat_-_free_whipped_topping'
p3457
g136
sS'grapefruit'
p3458
g529
sVquick_-_cooking_rolled_oats
p3459
g243
sg131
g131
sVradish
p3460
g2179
sVhot_peppers
p3461
g68
sVkumquat
p3462
g1746
sVparsley_stems
p3463
g282
sVkiwi_fruit
p3464
g663
sVorange_section
p3465
g1200
sVcondensed_cream_of_chicken_soup
p3466
g2925
sVoyster_mushroom
p3467
g369
sg1670
g1670
sVarbol_chile
p3468
g66
sVmacaroni_noodles
p3469
g88
sVpork_loin_chop
p3470
g44
sVchuck_steak
p3471
g1910
sS'canned_vegetable_broth'
p3472
g91
sS'adobo_seasoning'
p3473
g118
sS'banana_extract'
p3474
g3474
sS'wheat_berries'
p3475
g2452
sVsummer_squash
p3476
g111
sVboneless_chuck_roast
p3477
g1910
sVorange_rind
p3478
g857
sVfresh_rosemary
p3479
g9
sVLittle_Smokies_sausages
p3480
g1991
sS'dried_beans'
p3481
S'beans'
p3482
sVfudge_sauce
p3483
g2512
sS'Italian_-_style_stewed_tomatoes'
p3484
g143
sS'rum_extract'
p3485
g235
sVwhite_tequila
p3486
g801
sS'queso_blanco'
p3487
g522
sVmixed_candied_fruit
p3488
g313
sg1475
g1475
sVveal_scallops
p3489
g1670
sVsweet_Italian_sausage
p3490
g145
sVcellophane_noodle
p3491
Vcellophane_noodles
p3492
sS'crostini'
p3493
g3493
sVbun
p3494
g367
sg593
g593
sVboneless_pork_chop
p3495
g44
sVcaraway_seed
p3496
g2785
sVtart_cooking_apple
p3497
g168
sVsmoked_cheddar_cheese
p3498
g275
sS'fresh_corn'
p3499
g205
sVminiature_party_rye_rounds
p3500
g56
sS'ricotta_salata'
p3501
g192
sg2925
g2925
sS'custard_powder'
p3502
g3502
sS'meyer_lemons'
p3503
g2503
sVshoulder_lamb_chop
p3504
g2128
sVcooked_corned_beef
p3505
Vcorned_beef
p3506
sVdried_Mexican_oregano
p3507
g621
sVdry_thyme_leaves
p3508
g156
sVconsomme
p3509
g250
sVmascarpone_cheese
p3510
g2643
sVdried_plum
p3511
g214
sS'banana_liqueur'
p3512
g442
sS'wooden_popsicle_sticks'
p3513
g3513
sS'frozen_cranberries'
p3514
g125
sVsmall_red_potato
p3515
g5
sVtop_round_beef
p3516
g58
sg290
g290
sVcandy
p3517
g2293
sVbeef_steak
p3518
g271
sVfresh_bay_leaf
p3519
g729
sg3017
g3017
sVno_-_salt_-_added_tomato_sauce
p3520
g2397
sg535
g535
sVMexican_chili_powder
p3521
g115
sVcracked_pepper
p3522
g76
sS'kale_leaves'
p3523
g1122
sVbeet_sugar
p3524
g93
sS'beef_bouillon_granules'
p3525
g562
sVfresh_sage
p3526
g802
sS'green_onions'
p3527
g1377
sVred_ripe_tomatoes
p3528
g143
sVpie_pastry
p3529
g657
sS'oil_-_cured_olives'
p3530
g2
sVmedium_pasta_shell
p3531
g2146
sS'seasoned_flour'
p3532
g139
sS'dinner_rolls'
p3533
g367
sS'canned_mandarin_oranges'
p3534
g342
sVplain_white_flour
p3535
g139
sS'ribbon'
p3536
g3536
sg1878
g1878
sS'unsweetened_vanilla_almond_milk'
p3537
g305
sS'canned_jalapeno_slices'
p3538
g68
sS'Galliano'
p3539
g442
sVranch_style_bean
p3540
g773
sg235
g235
sVdark_soy_sauce
p3541
g184
sS'Smart_Balance_butter_spread'
p3542
g671
sVmild_green_chilies
p3543
g68
sVdried_rosemary_leaves
p3544
g9
sS'ground_allspice'
p3545
g3545
sVchicken_stock_cubes
p3546
g250
sVcream_cheese_spread
p3547
g645
sg472
g472
sVSpanish_olive_oil
p3548
g169
sVmedium_cheddar
p3549
g275
sS'orange_gelatin'
p3550
g62
sVboneless_pork_loin_chop
p3551
g44
sS'liquid_glucose'
p3552
g3552
sg2512
g2512
sS'cane_syrup'
p3553
g3553
sS'smoked_salmon'
p3554
g3554
sS'Thai_sweet_chili_sauce'
p3555
g392
sS'buckwheat_groats'
p3556
g3556
sS'maraschino_juice'
p3557
g654
sVinstant_mashed_potatoes
p3558
g1316
sg307
g307
sS'strawberry_jelly'
p3559
g3559
sVsoft_brown_sugar
p3560
g253
sg160
g160
sS'mace'
p3561
g3561
sVmild_sausage
p3562
g280
sVportabella_mushroom_caps
p3563
g593
sVbeef_round_steak
p3564
g271
sVwhole_coriander_seeds
p3565
g1569
sS'mixed_fresh_herbs'
p3566
g189
sVyellow_cherry_tomato
p3567
g1552
sVhot_smoked_paprika
p3568
g1052
sVcherrystone_clam
p3569
g976
sS'Philadelphia_Cream_Cheese'
p3570
g645
sVchinese_rice_wine
p3571
g1035
sS'fresh_salmon'
p3572
g1216
sS'tart_apples'
p3573
g168
sS'new_potatoes'
p3574
g5
sg906
g906
sg1192
g1192
sS'kirby_cucumbers'
p3575
g448
sS'garlic_pepper_seasoning'
p3576
g3576
sS'lime_gelatin'
p3577
g62
sS'fresh_mushrooms'
p3578
g369
sS'kielbasa'
p3579
g2280
sVplain_yogurt
p3580
g608
sS'green_asparagus'
p3581
g652
sS'maple_sugar'
p3582
g3582
sV6_-_inch_corn_tortilla
p3583
g1515
sg1414
g1414
sS'dried_navy_beans'
p3584
g496
sVBaby_Spinach
p3585
g643
sg1321
g1321
sVextra_virgin_olive_oil
p3586
g169
sS'barley_flour'
p3587
g3587
sS'assorted_fresh_vegetables'
p3588
g2162
sS'frozen_blackberries'
p3589
g1049
sVno_-_salt_-_added_diced_tomatoes
p3590
g1881
sS'all_-_bran_cereal'
p3591
g3591
sVparsnip
p3592
g378
sS'sesame_dressing'
p3593
g3593
sVbread_machine_yeast
p3594
g52
sVfuji_apple
p3595
g168
sg1574
g1574
sS'pate_brisee'
p3596
g1297
sVdried_red_peppers
p3597
g535
sg1403
g1403
sg15
g15
sS'shrimp_stock'
p3598
g250
sg267
g267
sS'oat_flour'
p3599
g3599
sS'ground_coffee'
p3600
g3600
sVbaby_turnip
p3601
g531
sVsambal_oelek_chili_paste
p3602
g3219
sS'fat_-_free_buttermilk'
p3603
g2852
sS'lean_hamburger'
p3604
g149
sVmonterey_jack_and_cheddar_cheese_blend
p3605
g275
sVEagle_Brand_Condensed_Milk
p3606
g3017
sg491
g491
sg1112
g1112
sS'fresh_chili_peppers'
p3607
g1008
sg2413
g2413
sVartichoke_heart
p3608
g1574
sVpork_steak
p3609
g44
sVwhole_wheat_hamburger_buns
p3610
g237
sg3482
g3482
sVpeasant_bread
p3611
g56
sVdistilled_white_vinegar
p3612
g1513
sVhot_cocoa_mix
p3613
S'hot_chocolate_powder'
p3614
sVfresh_dill
p3615
g461
sg496
g496
sVmaraschino_cherries
p3616
g3616
sVbeef_top_round_steak
p3617
g58
sS'passion_fruit_juice'
p3618
g3618
sVchipotle_pepper
p3619
g26
sVground_sage
p3620
g802
sVapricot
p3621
g2065
sS'ground_nutmeg'
p3622
g713
sVfresh_coarse_ground_black_pepper
p3623
g76
sVhickory_chips
p3624
g1424
sS'instant_chocolate_drink_mix'
p3625
g3614
sVskinless_chicken_pieces
p3626
g1168
sS'light_molasses'
p3627
g1080
sS'seedless_raisins'
p3628
g1112
sVfresh_parsley_sprig
p3629
g282
sS'hoisin_sauce'
p3630
g3630
sVdry_roasted_salted_peanut
p3631
g1852
sS'frozen_limeade_concentrate'
p3632
g3632
sVbalsamic_dressing
p3633
g1923
sVminiature_chocolate_chip
p3634
g63
sVpork_steaks
p3635
g44
sVfrozen_orange_juice_concentrate
p3636
g423
sS'sweet_cherries'
p3637
g121
sVciabatta_roll
p3638
g3068
sVfresh_cilantro_leaves
p3639
g233
sS'smoked_turkey_breast'
p3640
g190
sS'fresh_snow_peas'
p3641
g22
sS'orange_marmalade'
p3642
g3642
sS'instant_chicken_bouillon'
p3643
g412
sVgrilled_chicken_breast
p3644
g344
sS'ground_almonds'
p3645
g1429
sVold_fashioned_oats
p3646
g243
sS'mixed_sprouts'
p3647
g3647
sg848
g848
sVspicy_pork_sausage
p3648
g280
sVcornichon
p3649
g1728
sVcondensed_French_onion_soup
p3650
g2763
sS'ponzu_sauce'
p3651
g3651
sS'lemon'
p3652
g2503
sS'frozen_mango_chunks'
p3653
g907
sVReynolds_Wrap_Foil
p3654
Valuminum_foil
p3655
sS'grouper'
p3656
g3656
sg2772
g2772
sS'turkey_wings'
p3657
g3657
sVextra_-_large_egg_yolks
p3658
g131
sg354
g354
sg74
g74
sS'seafood_cocktail_sauce'
p3659
g3659
sVnatural_-_style_peanut_butter
p3660
g761
sS'dried_marjoram'
p3661
g3319
sVdigestive_biscuit
p3662
g1497
sS'drippings'
p3663
g387
sVpimento_-_stuffed_green_olives
p3664
g2
sS'wheat_crackers'
p3665
g3665
sS'tamarind_juice'
p3666
g3666
sVmayonnaise
p3667
g1653
sS'bicarbonate_of_soda'
p3668
g3668
sS'long_beans'
p3669
g3669
sV9_"_pastry_pie_shells
p3670
g292
sVThai_red_chili_pepper
p3671
g1026
sS'banana_leaves'
p3672
g3672
sVreduced_-_calorie_margarine
p3673
g316
sg309
g309
sS'orange_Curacao'
p3674
g442
sVmaraschino_cherry
p3675
g3616
sVoregano_leaves
p3676
g621
sVhaddock_fillet
p3677
g601
sS'Corn_Chex'
p3678
g3678
sVchocolate_hazelnut_spread
p3679
g3238
sg2169
g2169
sVcrunchy_peanut_butter
p3680
g761
sS'dried_split_peas'
p3681
g581
sVlean_ground_chuck
p3682
g149
sg2339
g2339
sVdried_red_chili
p3683
g66
sVmixed_baby_greens
p3684
g3129
sVswede
p3685
g868
sVred_plum
p3686
g1691
sVchicken_liver
p3687
g1037
sVfree_-_range_eggs
p3688
g322
sg36
g36
sS'pomegranate_juice'
p3689
g3689
sS'lime_sherbet'
p3690
g3690
sVsour_cherries
p3691
g121
sS'cooking_wine'
p3692
g1372
sS'butterscotch_schnapps'
p3693
g1921
sS'berries'
p3694
g3694
sS'buffalo'
p3695
g3695
sS'nonfat_yogurt'
p3696
g608
sS'cod'
p3697
g3697
sS'firm_bananas'
p3698
g3063
sS'white_whole_wheat_flour'
p3699
g139
sVham_hock
p3700
g2971
sVbutter_flavor_extract
p3701
g2636
sVchipotle_chile_in_adobo
p3702
g26
sVcourgettes
p3703
g111
sg617
g617
sS'process_American_cheese'
p3704
g812
sVdry_ranch_dressing_mix
p3705
g221
sVdried_garlic
p3706
g1875
sVsea_bass_fillets
p3707
g109
sVmorel
p3708
g1755
sVdried_thyme
p3709
g156
sVPersian_cucumbers
p3710
g448
sg1227
g1227
sg1545
g1545
sVdried_chili
p3711
g66
sg1827
g1827
sVclementines
p3712
g2197
sS'evaporated_low_-_fat_milk'
p3713
g70
sS'plain_gelatin'
p3714
g62
sVunbleached_bread_flour
p3715
g139
sVItalian_stewed_tomatoes
p3716
g143
sS'cheese_spread'
p3717
g645
sS'panir'
p3718
g3718
sVextra_large_egg
p3719
g322
sVhard_rolls
p3720
g367
sS'dried_fenugreek_leaves'
p3721
g1313
sVCrispix_cereal
p3722
g1770
sS'curds'
p3723
g3723
sVdried_currant
p3724
g786
sVcheese_slice
p3725
g522
sVcanned_mushroom
p3726
g369
sVcaramel_topping
p3727
g1967
sS'graham_cracker_crumbs'
p3728
g3728
sVbamboo_skewers
p3729
g491
sVfrozen_baby_lima_bean
p3730
g165
sS'turkey_pepperoni'
p3731
g1927
sVwhole_tomatoes
p3732
g143
sVfrozen_pie_crust
p3733
g292
sVBisquick_baking_mix
p3734
g1796
sVhabanero_peppers
p3735
g649
sS'blackberry_jam'
p3736
g3736
sVwhite_cheese
p3737
g275
sVasparagus_spears
p3738
g652
sg3492
g3492
sS'shell_pasta'
p3739
g2146
sS'fennel_leaves'
p3740
g3394
sS'rump_steak'
p3741
g271
sS'baked_tofu'
p3742
g906
sg2469
g2469
sS'low_sodium_beef_broth'
p3743
g562
sS'mutton'
p3744
g3744
sVgraham_wafers
p3745
g435
sVwhole_wheat_bread_crumbs
p3746
g158
sS'raw_peanuts'
p3747
g1852
sVCampbell's_Cream_of_Chicken_Soup
p3748
g2925
sg1001
g1001
sS'absinthe'
p3749
g3749
sg652
g652
sVchicken_drumsticks
p3750
g667
sS'ground_sirloin'
p3751
g149
sS'ice_cubes'
p3752
g814
sVpineapple_rings
p3753
g504
sg3655
g3655
sVpickle_relish
p3754
g48
sVsage_sprig
p3755
g802
sS'KNUDSEN_Sour_Cream'
p3756
g113
sS'lemon_wedges'
p3757
g2503
sS'prepared_stuffing'
p3758
g3758
sVlow_-_fat_vanilla_yogurt
p3759
g1530
sVdouble_crust_pie_crusts
p3760
g292
sVriesling_wine
p3761
g479
sS'onion_rolls'
p3762
g367
sg2102
g2102
sVjumbo_egg
p3763
g322
sVegg_roll_wraps
p3764
g1490
sVfresh_thyme
p3765
g156
sVthyme_leaves
p3766
g156
sVred_currant_jelly
p3767
g946
sVpie_shell
p3768
g292
sVdried_dill_weed
p3769
g461
sVwhole_green_onion
p3770
g1377
sS'fresh_ahi_tuna'
p3771
g634
sS'pepper'
p3772
g3772
sg986
g986
sVpretzel_sticks
p3773
g3773
sS'white_breadcrumbs'
p3774
g158
sS'fat_-_free_ricotta_cheese'
p3775
g192
sVlimes_,_juice_of
p3776
g628
sS'frisee'
p3777
g3777
sg1482
g1482
sS'marinade'
p3778
g3778
sg312
g312
sS'fresh_chervil'
p3779
g258
sVpoblano_peppers
p3780
g2204
sg745
g745
sg2008
g2008
sS'fresh_blackberries'
p3781
g1049
sS'Doritos'
p3782
g3782
sVnutmeats
p3783
g363
sVred_onion
p3784
g1536
sg2947
g2947
sS'chili_flakes'
p3785
g66
sS'sauerkraut'
p3786
g3786
sg836
g836
sS'soup'
p3787
g3787
sVsandwich_bread
p3788
g56
sVfrankfurters
p3789
g558
sg1505
g1505
sS'sun_-_dried_tomato_pesto'
p3790
g3790
sVstring_bean
p3791
g228
sS'steamed_rice'
p3792
g127
sVgolden_caster_sugar
p3793
g93
sS'applesauce'
p3794
g3794
sS'orange_juice_concentrate'
p3795
g423
sVmini_marshmallows
p3796
g269
sS'dry_roasted_peanuts'
p3797
g1852
sVLawry's_Seasoned_Salt
p3798
g118
sS'raspberry_vinegar'
p3799
g3799
sVparsley_sprigs
p3800
g282
sVice_cube
p3801
g814
sS'red_apples'
p3802
g168
sS'plain_flour'
p3803
g139
sVfish_fillet
p3804
g2339
sVprocessed_cheese
p3805
g812
sS'KRAFT_Shredded_Low_-_Moisture_Part_-_Skim_Mozzarella_Cheese'
p3806
g690
sS'Stove_Top_stuffing_mix'
p3807
g123
sVwhite_potato
p3808
g5
sS'boneless_lamb_shoulder'
p3809
g1338
sVdistilled_vinegar
p3810
g1513
sg428
g428
sVhot_chili_powder
p3811
g535
sVpancake
p3812
g173
sS'pudding'
p3813
g3813
sS'cracked_wheat'
p3814
g3814
sg1072
g1072
sg1832
g1832
sg1394
g1394
sVcanned_diced_green_chiles
p3815
g68
sVunsweetened_baking_chocolate
p3816
g1493
sVtea_bag
p3817
g898
sg401
g401
sS'mung_beans'
p3818
g3818
sVsaffron_strand
p3819
g354
sS'pita_chips'
p3820
g3820
sS'condensed_chicken_broth'
p3821
g412
sg2267
g2267
sVfresh_fig
p3822
g86
sS'decorator_sugar'
p3823
g93
sS'honey_-_roasted_ham'
p3824
g224
sVclementine
p3825
g2197
sVcorn_tortillas
p3826
g2956
sVsmall_onion
p3827
g7
sVcrushed_red_pepper_flakes
p3828
g66
sVapple
p3829
g168
sVfrozen_broccoli_florets
p3830
g1072
sVfrozen_chopped_broccoli
p3831
g1072
sg442
g442
sg1035
g1035
sVegg_yolk
p3832
g131
sVshaoxing_wine
p3833
g1035
sS'bloody_mary_mix'
p3834
g3834
sS'cream_soda'
p3835
g3835
sVstraw_mushroom
p3836
g369
sVorange_wedges
p3837
g1200
sg3361
g3361
sVgreen_seedless_grape
p3838
g580
sS'fresh_lemon_zest'
p3839
g924
sVwater_-_packed_artichoke_hearts
p3840
g1574
sS'oyster_crackers'
p3841
g3841
sVthin_egg_noodles
p3842
g199
sg619
g619
sS'ground_ham'
p3843
g224
sS'fresh_lime_zest'
p3844
g1242
sVhard_-_cooked_eggs
p3845
g1227
sVrutabaga
p3846
g868
sVfruit_jam
p3847
g3131
sVaubergines
p3848
g1160
sS'fat_-_free_Italian_salad_dressing'
p3849
g509
sVlemon_pepper_seasoning
p3850
g1646
sVfresh_curly_-_leaf_parsley
p3851
g282
sVyellow_mustard
p3852
g630
sS'vanilla_oil'
p3853
g1592
sg175
g175
sVfresh_mint_leaves
p3854
g623
sS'prepared_horseradish'
p3855
g1198
sS'crushed_pineapple'
p3856
g504
sg294
g294
sS'pita_bread_rounds'
p3857
g665
sS'mexican_chocolate'
p3858
g431
sS'hemp_seeds'
p3859
g3859
sS'dumplings'
p3860
g3860
sVLea_&_Perrins_Worcestershire_Sauce
p3861
g1827
sS'pastry_flour'
p3862
g139
sS'olive_juice'
p3863
g3863
sS'sourdough_starter'
p3864
g3864
sg1057
g1057
sVtangerine
p3865
g2197
sS'canned_black_beans'
p3866
g1147
sS'Chinese_cabbage'
p3867
g2347
sVrefrigerated_pie_crust
p3868
g292
sg46
g46
sVmuscovado_sugar
p3869
g253
sVmixed_salad_green
p3870
g2768
sVrabbit
p3871
g3871
sVhead_of_garlic
p3872
g1263
sg1717
g1717
sS'sriracha_sauce'
p3873
g3873
sVfresh_breadcrumbs
p3874
g158
sVboneless_center_cut_pork_chop
p3875
g44
sVEnglish_pea
p3876
g1661
sS'white_chocolate_chips'
p3877
g2105
sg1147
g1147
sg775
g775
sVfresh_raspberry
p3878
g428
sg48
g48
sS'brine_-_cured_black_olives'
p3879
g153
sS'ground_fennel'
p3880
g3880
sS'low_-_fat_vanilla_ice_cream'
p3881
g1819
sS'thin_spaghetti'
p3882
g745
sVmasa_corn_flour
p3883
g2158
sS'cachaca'
p3884
g235
sVpita_pocket
p3885
g665
sVrib_eye_steak
p3886
g271
sVcherry_jam
p3887
g3164
sS'medium_shrimp'
p3888
g1179
sVDutch_-_processed_cocoa_powder
p3889
g389
sVcrescent_roll
p3890
g399
sVfrozen_french_fries
p3891
g1287
sVunsalted_cashews
p3892
g830
sVrosemary_sprigs
p3893
g9
sVItalian_tomatoes
p3894
g143
sS'white_frosting'
p3895
g1587
sVlemons_,_zest_of
p3896
g924
sS'lean_ground_lamb'
p3897
g1842
sS'apple_jelly'
p3898
g3898
sS'savoy_cabbage'
p3899
g3899
sg3063
g3063
sVdripping
p3900
g387
sVfilet_mignon_steak
p3901
g1525
sVpineapple_chunks_in_juice
p3902
g504
sS'pattypan_squash'
p3903
g1233
sVcarrot
p3904
g440
sS'anaheim_chilies'
p3905
g66
sVfresh_lemon_rind
p3906
g924
sVunsalted_almonds
p3907
g1429
sg1179
g1179
sVonions
p3908
g7
sVsherry_wine_vinegar
p3909
g1394
sg358
g358
sS'thousand_island_dressing'
p3910
g3910
sg1600
g1600
sg3432
g3432
sS'strawberry_gelatin'
p3911
g62
sVcrisp_rice_cereal
p3912
g160
sS'whole_wheat_flour'
p3913
g139
sS'kefir'
p3914
g3914
sVmerlot
p3915
g1372
sVdiced_tomatoes_with_juice
p3916
g1881
sg255
g255
sVSpanish_olives
p3917
g2
sVliquid_stevia
p3918
g374
sVcaramel_candies
p3919
g97
sVleaf_lettuce
p3920
g408
sS'Raisin_Bran_cereal'
p3921
g3921
sVcake_yeast
p3922
g52
sg250
g250
sVbaking_sheets
p3923
g2043
sS'maggi_seasoning'
p3924
g3924
sS'ripe_olives'
p3925
g2
sVyukon_gold_potato
p3926
g5
sS'kohlrabi'
p3927
g3927
sg647
g647
sVthin_soy_sauce
p3928
g184
sVnam_pla
p3929
g1374
sS'Konnyaku'
p3930
g3930
sg2056
g2056
sS'simple_syrup'
p3931
g3931
sg2030
g2030
sg3142
g3142
sVteriyaki_marinade
p3932
g979
sS'condensed_cream_of_potato_soup'
p3933
g2342
sS'deviled_ham'
p3934
g3934
sg690
g690
sVfresh_large_mushrooms
p3935
g369
sg1431
g1431
sS'deli_turkey'
p3936
g3936
sVpork_sausage
p3937
g280
sS'heirloom_tomatoes'
p3938
g143
sVextra_lean_ground_beef
p3939
g149
sVparma_ham
p3940
g1114
sVcanola_oil
p3941
g15
sS'tuna_steaks'
p3942
g634
sVcrushed_pineapple_in_juice
p3943
g504
sS'white_balsamic_vinegar'
p3944
g520
sg687
g687
sS'boiling_onions'
p3945
g7
sVpineapple_tidbits
p3946
g504
sVlow_-_fat_ricotta_cheese
p3947
g192
sVsultana_raisins
p3948
g1112
sS'tiny_new_potatoes'
p3949
g5
sVred_onion_ring
p3950
g1560
sS'unsweetened_dutch_cocoa'
p3951
g389
sS'blueberry_jam'
p3952
g3952
sVpasta_sauce
p3953
g1306
sg575
g575
sg1160
g1160
sVpastry_dough
p3954
g811
sVrapeseed_oil
p3955
g15
sVcanned_crabmeat
p3956
g1582
sVcinnamon_stick
p3957
g98
sVdried_white_bean
p3958
g496
sVdried_New_Mexico_chiles
p3959
g66
sVgarlic_granules
p3960
g1875
sS'apricot_nectar'
p3961
g3961
sVdried_oregano_leaves
p3962
g621
sS'refried_black_beans'
p3963
g1147
sVsoft_fresh_goat_cheese
p3964
g747
sS'cream_cheese_frosting'
p3965
g645
sS'fresh_linguine'
p3966
g463
sVcapsicums
p3967
g377
sS'yellow_cake_mix'
p3968
g314
sVCornish_hen
p3969
g2508
sVmilk_chocolate_chips
p3970
g63
sVlarge_raw_shrimp
p3971
g1179
sVrefrigerated_cheese_tortellini
p3972
g74
sVfresh_parsley_leaves
p3973
g282
sVbroccoli_stem
p3974
g611
sVdark_chocolate_chips
p3975
g63
sS'lager_beer'
p3976
g981
sVscallion_top
p3977
g1377
sVminiature_phyllo_cups
p3978
g3978
sVcanned_jalapeno_peppers
p3979
g68
sS'herb_salad_dressing'
p3980
g1953
sVcannellini
p3981
g1956
sS'sliced_water_chestnuts'
p3982
g122
sS'garlic_-_flavored_croutons'
p3983
g1692
sS'orange_blossom_honey'
p3984
g892
sS'fat_free_egg_substitute'
p3985
S'egg_substitute'
p3986
sVdiced_onion
p3987
g7
sS'Minute_Rice'
p3988
g127
sS'brioche_bread'
p3989
g3989
sS'cooked_turkey'
p3990
g1986
sg1309
g1309
sVveal_shank
p3991
g2796
sS'chocolate_milk'
p3992
g3992
sVhot_Italian_sausage_links
p3993
g145
sg1016
g1016
sS'instant_vanilla_pudding'
p3994
g38
sg1049
g1049
sVorange_twists
p3995
g2720
sg139
g139
sg194
g194
sVfat_-_free_cottage_cheese
p3996
g365
sVoranges
p3997
g1200
sVstrong_coffee
p3998
g468
sVsweet_green_pepper
p3999
g839
sVpowdered_ginger
p4000
g319
sVpickling_cucumber
p4001
g448
sS'canned_salmon'
p4002
g1216
sVcoriander
p4003
g233
sg389
g389
sS'grana_padano'
p4004
g4004
sg547
g547
sS'pork_mince'
p4005
g1127
sS'katakuriko'
p4006
S'potato_starch'
p4007
sVprepared_mayonnaise
p4008
g1653
sg1188
g1188
sVpenne_pasta
p4009
g2249
sS'black_bean_sauce'
p4010
g4010
sg2162
g2162
sVground_mustard
p4011
g2881
sVfrozen_puff_pastry
p4012
g811
sS'masa_harina_flour'
p4013
g2158
sS'orange_,_juice_of'
p4014
g423
sVfresh_breadcrumb
p4015
g158
sS'peach_schnapps'
p4016
g1921
sVfresh_dill_sprigs
p4017
g461
sVunbleached_white_flour
p4018
g139
sVchicken_breast_fillet
p4019
g1567
sS'grape_leaves'
p4020
g4020
sS'dried_savory'
p4021
g4021
sVlime_peel
p4022
g1242
sVham_hocks
p4023
g2971
sVparsley_sprig
p4024
g282
sS'swiss_cheese'
p4025
g4025
sS'mincemeat'
p4026
g4026
sg2059
g2059
sVstring_beans
p4027
g228
sS'escarole'
p4028
g4028
sS'brown_rice_flour'
p4029
g2088
sVfirm_banana
p4030
g3063
sS'edam_cheese'
p4031
g4031
sS'frozen_whipped_topping'
p4032
g136
sVmarsala_wine
p4033
g1695
sVbacon_fat
p4034
g575
sVRitz_cracker
p4035
g1120
sS'Thai_red_curry_paste'
p4036
g2967
sVdried_red_chili_peppers
p4037
g66
sVsmall_potato
p4038
g5
sS'bean_flour'
p4039
g4039
sVboneless_skinless_chicken
p4040
g344
sVchuck_steaks
p4041
g1910
sVgreen_onion_tops
p4042
g1377
sS'baked_beans'
p4043
g4043
sS'thai_chili_paste'
p4044
g3150
sS'tapioca_flour'
p4045
g4045
sg1398
g1398
sg1885
g1885
sVflax_seed_meal
p4046
g46
sS'bibb_lettuce'
p4047
g408
sVcarbonated_lemon_-_lime_beverage
p4048
g1384
sVvanilla_flavor_instant_pudding_and_pie_filling_mix
p4049
g38
sVwater_chestnut
p4050
g122
sVsparkling_wine
p4051
g1788
sS'condensed_golden_mushroom_soup'
p4052
g974
sVvegetable_stock
p4053
g91
sVfrank
p4054
g558
sS'chili_without_beans'
p4055
g4055
sVquail_eggs
p4056
g4056
sVginger_powder
p4057
g319
sVlouisiana_hot_sauce
p4058
g392
sg2971
g2971
sS'dried_cannellini_beans'
p4059
g42
sg549
g549
sS'cooked_rice'
p4060
g127
sVspinach_leaves
p4061
g643
sVground_meat
p4062
g149
sVM_&_M's_plain_chocolate_candy
p4063
g896
sS'fat_free_chicken_broth'
p4064
g412
sVhot_sausage
p4065
g280
sVAmarula_cream_liqueur
p4066
g2588
sS'golden_beets'
p4067
g4067
sS'nigella_seeds'
p4068
g4068
sS'red_leaf_lettuce'
p4069
g408
sVcanned_pineapple
p4070
g504
sS'sugar_-_free_instant_chocolate_pudding_mix'
p4071
g38
sVunbleached_flour
p4072
g139
sS'steak'
p4073
g271
sVfrozen_corn_kernels
p4074
g205
sS'fat_-_free_mayonnaise'
p4075
g1653
sVLittle_Smokies_sausage
p4076
g1991
sS'coconut_flour'
p4077
g4077
sVagave_nectar
p4078
g2657
sS'Thai_chiles'
p4079
g1026
sg3438
g3438
sg517
g517
sVheavy_whipping_cream
p4080
g732
sS'fresh_cream'
p4081
g732
sVgolden_syrup
p4082
g3061
sg1695
g1695
sS'chicken_thigh_fillets'
p4083
g667
sVokra_pods
p4084
g141
sS'baby_portabella_mushrooms'
p4085
g593
sVred_sweet_bell_pepper
p4086
g476
sg683
g683
sS'peas_and_carrots'
p4087
g4087
sS'frozen_cauliflower'
p4088
g527
sVlight_margarine
p4089
g316
sVbulk_sausage
p4090
g280
sVflat_-_leaf_Italian_parsley
p4091
g282
sS'French_-_fried_onions'
p4092
g808
sg558
g558
sS'cinnamon_baking_chips'
p4093
g4093
sVblackstrap_molasses
p4094
g1080
sS'butternut_squash'
p4095
g1233
sVred_chili_pepper_flakes
p4096
g66
sS'unsalted_shelled_pistachios'
p4097
g2059
sVcayenne_powder
p4098
g115
sS'chili_seasoning_mix'
p4099
g118
sS'Broccolini'
p4100
g4100
sg367
g367
sg2984
g2984
sVgraham_cracker
p4101
g435
sg1619
g1619
sVveggie_burger
p4102
g936
sS'baby_clams'
p4103
g976
sg1165
g1165
sS'frozen_hash_browns'
p4104
g986
sVfrozen_pie_crusts
p4105
g292
sg2204
g2204
sg2937
g2937
sVlemon_rind
p4106
g924
sVpizza_cheese
p4107
g690
sVsalmon_steak
p4108
g294
sS'adobo_sauce'
p4109
g4109
sS'orzo_pasta'
p4110
g4110
sS'kalamata_olives'
p4111
g153
sVlow_-_fat_cream_cheese
p4112
g645
sVancho_chili
p4113
g66
sS'solid_white_tuna_packed_in_water'
p4114
g965
sS'corned_beef_brisket'
p4115
g1555
sS'ground_aniseed'
p4116
g332
sg1028
g1028
sS'KRAFT_Shredded_Mozzarella_Cheese_with_a_Touch_of_PHILADELPHIA'
p4117
g690
sVboston_lettuce
p4118
g408
sS'citric_acid'
p4119
g4119
sVshallot
p4120
g769
sVchicken_drumstick
p4121
g667
sS'lavash_bread'
p4122
g4122
sS'rye_cocktail_bread'
p4123
g56
sVfresh_basil_leaves
p4124
g987
sVtea_leaves
p4125
g898
sVbuttermilk_biscuit
p4126
g506
sS'pearl_tapioca'
p4127
g34
sVhot_sauce
p4128
g392
sS'guajillo_chilies'
p4129
g66
sS'seafood_seasoning'
p4130
g118
sVcanned_solid_-_pack_pumpkin
p4131
g488
sVspicy_mustard
p4132
g2227
sS'hen'
p4133
g4133
sVgreen_cardamom_pods
p4134
g647
sS'red_plums'
p4135
g1691
sg764
g764
sg3332
g3332
sVyellow_sweet_pepper
p4136
g537
sVwhole_boneless_chicken_breasts
p4137
g344
sS'streaky_bacon'
p4138
g4138
sS'cooked_noodles'
p4139
g199
sVsirloin_steak
p4140
g775
sVswedes
p4141
g868
sS'green_apples'
p4142
g168
sVbasil_sprigs
p4143
g987
sS'cream_of_wheat'
p4144
g4144
sS'turkey_bacon'
p4145
g4145
sS'oregano_sprig'
p4146
g621
sVwhite_breadcrumb
p4147
g158
sS'mortadella'
p4148
g4148
sS'fusilli'
p4149
g4149
sS'Spam'
p4150
g4150
sg440
g440
sS'pasta_dough'
p4151
g4151
sVturbinado_sugar
p4152
g1483
sVplain_nonfat_yogurt
p4153
g608
sVtrout_fillet
p4154
g935
sS'sorrel'
p4155
g4155
sVdry_tarragon
p4156
g836
sVMexican_-_style_corn
p4157
g1152
sS'potato_chips'
p4158
g4158
sg392
g392
sVdried_chili_pepper_flakes
p4159
g66
sg3161
g3161
sS'halloumi_cheese'
p4160
g4160
sS'green_tea_powder'
p4161
g4161
sg3373
g3373
sVcrusty_Italian_bread
p4162
g3068
sVclove
p4163
g1214
sg199
g199
sVroasting_chicken
p4164
g60
sS'roux'
p4165
g4165
sg1294
g1294
sS'unsweetened_coconut_milk'
p4166
g547
sg2516
g2516
sVwhite_pepper_powder
p4167
g722
sS'stuffed_olives'
p4168
g2
sg524
g524
sVbagel
p4169
g1797
sVnon_-_hydrogenated_margarine
p4170
g316
sVlight_Karo_syrup
p4171
g290
sS'ras_el_hanout_spice_mix'
p4172
g4172
sVbird_chiles
p4173
g1026
sVhot_pork_sausage
p4174
g280
sVgranulated_garlic
p4175
g1875
sS'fermented_black_beans'
p4176
g1147
sS'cracked_ice'
p4177
g814
sVMrs_._Dash_seasoning_mix
p4178
g118
sS'boiled_potatoes'
p4179
g5
sVonion_roll
p4180
g367
sS'Kitchen_Bouquet'
p4181
g4181
sg349
g349
sVbamboo_shoot
p4182
g2107
sVorange_slice
p4183
g1200
sVstar_anise_pods
p4184
Vstar_anise
p4185
sVdungeness_crab
p4186
g1124
sVfrying_oil
p4187
g15
sVEgg_Beaters_egg_substitute
p4188
g3986
sVdemerara_sugar
p4189
g253
sS'pitted_prunes'
p4190
g214
sVFritos_corn_chips
p4191
g444
sVsweet_red_pepper
p4192
g476
sVhot_red_peppers
p4193
g2071
sVfresh_parmesan_cheese
p4194
g1969
sS'dipping_sauce'
p4195
g4195
sVrefrigerated_buttermilk_biscuits
p4196
g506
sVpork_loin_roast
p4197
g595
sS'coconut_oil'
p4198
g4198
sg972
g972
sVolive_oil_flavored_cooking_spray
p4199
g401
sVPLANTERS_Sliced_Almonds
p4200
g1895
sg287
g287
sS'jelly_powder'
p4201
g946
sS'apple_pie_filling'
p4202
g1613
sVsweet_pickle
p4203
g48
sVgreen_pepper_strip
p4204
g839
sVyellow_zucchini
p4205
g111
sVdried_red_kidney_beans
p4206
g284
sVcandied_cherry
p4207
g356
sS'non_-_dairy_coffee_creamer'
p4208
g933
sV6_-_inch_corn_tortillas
p4209
g1515
sS'white_grape_juice'
p4210
g881
sS'vanilla_frozen_yogurt'
p4211
g1530
sVSimply_Potatoes_Shredded_Hash_Browns
p4212
g986
sS'instant_brown_rice'
p4213
g127
sS'margarita_mix'
p4214
g4214
sVpinot_noir_wine
p4215
g1372
sS'jalapeno_jack_cheese'
p4216
g1043
sS'ground_sumac'
p4217
g3410
sVbutton_mushroom
p4218
g369
sVyellow_onions
p4219
g7
sS'halibut'
p4220
g4220
sS'fresh_peaches'
p4221
g1086
sVbittersweet_chocolate_chips
p4222
g604
sS'bottled_chili_sauce'
p4223
g392
sVcreamed_corn
p4224
g4224
sg1790
g1790
sVwhite_almond_bark
p4225
g1543
sVsour_cherry
p4226
g121
sVwhole_grain_mustard
p4227
g630
sg60
g60
sVred_chili_pepper
p4228
g1026
sVdried_arbol_chile
p4229
g66
sS'sweet_marsala_wine'
p4230
g1695
sS'cherrystone_clams'
p4231
g976
sVreal_butter
p4232
g671
sVflat_iron_steak
p4233
g271
sg344
g344
sg107
g107
sg2651
g2651
sS'light_coconut_milk'
p4234
g547
sS'shelled_pistachios'
p4235
g2059
sS'whole_cloves'
p4236
g1214
sS'instant_flour'
p4237
g139
sS'steak_seasoning'
p4238
g118
sVbaby_bella_mushrooms
p4239
g593
sVsweet_red_peppers
p4240
g476
sS'ground_venison'
p4241
g4241
sVstarch
p4242
g3014
sS'vanilla_essence'
p4243
g613
sVwhite_cheddar_cheese
p4244
g275
sVliquid_egg_substitute
p4245
g3986
sS'tapioca_starch'
p4246
g4246
sVwhole_kernel_corn
p4247
g205
sg608
g608
sS'day_-_old_French_bread'
p4248
g56
sg1080
g1080
sS'strawberry_syrup'
p4249
g4249
sS'dark_molasses'
p4250
g1080
sVchocolate_chip_cookies
p4251
g4251
sV9_inch_pie_shell
p4252
g292
sVMINUTE_White_Rice
p4253
g127
sVred_bell_peppers
p4254
g476
sS'canned_chick_-_peas'
p4255
g4255
sVcrabs
p4256
g175
sVbourbon_whiskey
p4257
g903
sS'lean_bacon'
p4258
g32
sVhot_chili_oil
p4259
g2206
sVwhite_onions
p4260
g7
sS'hot_chili_sauce'
p4261
g392
sVquail_egg
p4262
g4056
sS'squash_blossoms'
p4263
g4263
sg713
g713
sVmilk_chocolate_candy_bars
p4264
g431
sg3440
g3440
sVvegetable_bouillon
p4265
g91
sS'meat_tenderizer'
p4266
g4266
sVartichoke
p4267
g1247
sVjalapeno_chiles
p4268
g68
sg3614
g3614
sVespresso_powder
p4269
g1802
sVFrank's_red_hot_sauce
p4270
g392
sVfresh_oregano
p4271
g621
sS'food_coloring'
p4272
g4272
sVlight_muscovado_sugar
p4273
g253
sS'southwest_seasoning'
p4274
g118
sVdry_pinto_beans
p4275
g42
sVfresh_cilantro_stems
p4276
g233
sS'strawberry_puree'
p4277
g4277
sS'lean_ground_beef'
p4278
g149
sVcoarse_sugar
p4279
g93
sg586
g586
sVRo_-_Tel_tomatoes
p4280
g1520
sVfirm_ripe_tomatoes
p4281
g143
sVsesame_seeds
p4282
g267
sS'baby_turnips'
p4283
g531
sVlime_Jell_-_O_gelatin
p4284
g62
sVwhole_grain_bread
p4285
g56
sS'cooked_chicken'
p4286
g60
sg202
g202
sVred_bell_pepper
p4287
g476
sVcooked_white_rice
p4288
g127
sVdry_parsley_flakes
p4289
g282
sS'diced_onions'
p4290
g7
sS'garlic_paste'
p4291
g4291
sS'prepared_polenta'
p4292
g2102
sS'benedictine'
p4293
g442
sS'halibut_fillets'
p4294
g2339
sVhash_brown_potatoes
p4295
g986
sVhalf_-_and_-_half_cream
p4296
g486
sS'charcoal'
p4297
g4297
sVJapanese_eggplant
p4298
g1160
sVphyllo_pastry_sheet
p4299
g405
sVred_ripe_tomato
p4300
g143
sg527
g527
sg481
g481
sVCool_Whip
p4301
g846
sS'chicory_lettuce'
p4302
g4302
sS'ancho_chilies'
p4303
g66
sS'pizza_seasoning'
p4304
g4304
sg3986
g3986
sg2704
g2704
sVwhole_green_chili
p4305
g68
sVprosciutto_di_Parma
p4306
g1114
sVfrozen_bread_dough
p4307
g2283
sS'meatballs'
p4308
g4308
sS'zinfandel'
p4309
g4309
sVsweetened_condensed_milk
p4310
g3017
sS'spring_greens'
p4311
g4311
sVnavel_orange
p4312
g1200
sS'porcini_mushrooms'
p4313
g1028
sg729
g729
sVreduced_-_fat_cheddar_cheese
p4314
g275
sS'spinach_fettuccine'
p4315
g1296
sVKaro_syrup
p4316
g290
sVpumpkin_seeds
p4317
g849
sVgreen_plantain
p4318
g446
sS'Hersheys_Chocolate_Syrup'
p4319
g1410
sVwhole_chickens
p4320
g60
sS'beef_consomme'
p4321
g4321
sVfrozen_strawberries
p4322
g2223
sS'green_cabbage'
p4323
g1431
sVred_snapper_fillet
p4324
g1542
sVgruyere_cheese
p4325
g1733
sVtoasted_sliced_almonds
p4326
g1895
sVpretzel_stick
p4327
g3773
sS'boneless_pork_chops'
p4328
g44
sVdark_raisin
p4329
g1112
sg3188
g3188
sVwhole_nutmeg
p4330
g713
sS'Grand_Marnier'
p4331
g442
sVsalmon_fillet
p4332
g294
sS'fresh_marjoram'
p4333
g3319
sS'pre_-_shredded_mozzarella_cheese'
p4334
g690
sg260
g260
sS'red_chili_powder'
p4335
g115
sVcenter_-_cut_pork_chops
p4336
g44
sVbroiler_-_fryer_chickens
p4337
g60
sg999
g999
sVespresso_beans
p4338
g3089
sVDr_._Pepper_cola
p4339
g162
sS'roasted_peanuts'
p4340
g1852
sS'round_steaks'
p4341
g271
sS'graham_flour'
p4342
g139
sS'converted_rice'
p4343
g127
sVsalt_&_fresh_ground_pepper
p4344
g2386
sVreduced_fat_margarine
p4345
g316
sVcanned_plum_tomatoes
p4346
g143
sg2195
g2195
sVbouillon_cubes
p4347
g412
sg2382
g2382
sVReese's_Peanut_Butter_cups
p4348
g2021
sVbeef_tenderloin_steak
p4349
g1525
sVMexican_-_style_stewed_tomatoes
p4350
g1142
sS'tangerine_juice'
p4351
g4351
sS'soy_yogurt'
p4352
g608
sS'whole_wheat_lasagna_noodles'
p4353
g172
sVpork_loin
p4354
g1627
sVheads_of_garlic
p4355
g1263
sVyam
p4356
g999
sS'asiago_cheese'
p4357
g4357
sVboneless_chicken_breasts
p4358
g344
sVfresh_snow_pea
p4359
g22
sS'frozen_dinner_rolls'
p4360
g367
sVsugar_snap_pea
p4361
g22
sVcardamoms
p4362
g647
sS'tripe'
p4363
g4363
sg96
g96
sS'venison'
p4364
g4364
sS'yucca_root'
p4365
g4365
sVdaikon_radishes
p4366
g4366
sS'Kraft_Shredded_Mozzarella_Cheese'
p4367
g690
sVwhite_onion
p4368
g7
sS'rotini_pasta'
p4369
g4369
sVavocado_oil
p4370
g15
sS'apple_butter'
p4371
g4371
sVChinese_egg_noodles
p4372
g199
sVinstant_espresso
p4373
g1802
sVfresh_chili_pepper
p4374
g1008
sS'ravioli'
p4375
g4375
sg1200
g1200
sS'oranges_,_zest_of'
p4376
g857
sVsliced_apple
p4377
g168
sVsausages
p4378
g280
sS'jasmine_rice'
p4379
g127
sS'roast_pork'
p4380
g4380
sVhot_chicken_stock
p4381
g412
sS'solid_white_tuna'
p4382
g965
sVphyllo_pastry
p4383
g405
sS'red_radishes'
p4384
g2179
sVcoarse_grain_mustard
p4385
g630
sVgaram_masala
p4386
g12
sVfrozen_baby_peas
p4387
g2030
sS'plain_sweet_biscuit_crumbs'
p4388
g571
sS'spaghettini'
p4389
g745
sg1592
g1592
sS'Cotija_cheese'
p4390
g4390
sVparmesan_cheese
p4391
g1969
sVroma_tomato
p4392
g143
sVcoriander_leaves
p4393
g233
sg827
g827
sS'jumbo_lump_crab_meat'
p4394
g1582
sVbouillon_cube
p4395
g412
sS'capicola'
p4396
g4396
sVMalibu_rum
p4397
g556
sVbeef_shanks
p4398
g1556
sS'instant_pistachio_pudding_mix'
p4399
g38
sS'fresh_spinach'
p4400
g643
sg2362
g2362
sg3193
g3193
sVparsley_flakes
p4401
g282
sVturkey_kielbasa
p4402
g2280
sS'squid'
p4403
g4403
sVroll
p4404
g367
sVItalian_parsley
p4405
g282
sg2595
g2595
sV9_"_pastry_pie_shell
p4406
g292
sVfresh_cilantro
p4407
g233
sVcinnamon_graham_crackers
p4408
g435
sg394
g394
sS'dried_beef'
p4409
g4409
sVtart_apple
p4410
g168
sVswordfish_steak
p4411
g194
sVtop_round_steaks
p4412
g271
sVfresh_tarragon
p4413
g836
sVFrench_bread
p4414
g241
sg210
g210
sS'hoagie_rolls'
p4415
g367
sS'hummus'
p4416
g4416
sS'black_cherries'
p4417
g121
sVsweet_Hungarian_paprika
p4418
g1052
sVfresh_zucchini
p4419
g111
sVchard_leaves
p4420
g911
sg2065
g2065
sS'ground_hazelnuts'
p4421
g727
sVJimmy_Dean_sausage
p4422
g280
sVraspberry_Jell_-_O_gelatin
p4423
g1785
sS'condensed_beef_broth'
p4424
g562
sVunsalted_butter
p4425
g671
sVstewed_tomatoes
p4426
g257
sVhead_iceberg_lettuce
p4427
g408
sVred_cayenne_pepper
p4428
g2071
sg143
g143
sS'cooked_couscous'
p4429
g248
sVbuttery_crackers
p4430
g1120
sVburrito_-_size_flour_tortillas
p4431
g1551
sS'bay_leaf_powder'
p4432
g729
sS'blueberry_pie_filling'
p4433
g1613
sVdried_red_pepper_flakes
p4434
g66
sS'cooked_pumpkin'
p4435
g488
sVDream_Whip
p4436
g846
sS'miniature_peanut_butter_cups'
p4437
g2021
sS'Belgian_endive'
p4438
g4438
sValbacore_tuna_in_water
p4439
g634
sg597
g597
sS'instant_lemon_pudding'
p4440
g38
sVlemon_juice_concentrate
p4441
g1409
sVcelery_&_leaves
p4442
g1983
sVgarlic_clove
p4443
g1263
sg399
g399
sS'Tabasco_jalapeno_sauce'
p4444
g392
sS'self_-_rising_cornmeal'
p4445
g265
sVEner_-_G_Egg_Substitute
p4446
g3986
sg611
g611
sS'cheese_slices'
p4447
g522
sS'small_shell_pasta'
p4448
g2146
sS'ginger_syrup'
p4449
g4449
sVminiature_phyllo_cup
p4450
g3978
sVshelled_peas
p4451
g2030
sVblack_mission_fig
p4452
g86
sVfeta_cheese
p4453
g255
sg698
g698
sVJapanese_eggplants
p4454
g1160
sS'gummy_worms'
p4455
g4455
sS'minced_chicken'
p4456
g517
sVfull_-_bodied_red_wine
p4457
g1372
sVfrozen_cheese_ravioli
p4458
g1932
sS'smooth_cashew_butter'
p4459
g4459
sg2524
g2524
sVdill_pickle_relish
p4460
g48
sS'vinaigrette'
p4461
g4461
sS'cooked_basmati_rice'
p4462
g127
sVEnglish_seedless_cucumbers
p4463
g448
sg1959
g1959
sVcracker_crumb
p4464
g571
sS'cream_cheese_with_chives'
p4465
g645
sVfennel_seed
p4466
g2138
sS'tart_cherries'
p4467
g121
sVchicken_thigh
p4468
g667
sVrocket
p4469
g260
sVchocolate_chip_cookie
p4470
g4251
sS'fresh_mango'
p4471
g907
sVKRAFT_Shredded_Parmesan_Cheese
p4472
g1969
sS'tonic_water'
p4473
g4473
sg1875
g1875
sS'sweet_gherkins'
p4474
g48
sVmeringue
p4475
g2421
sg479
g479
sVsea_salt
p4476
g470
sS'reduced_fat_graham_cracker_crust'
p4477
g1882
sVgreen_bell_peppers
p4478
g839
sg4007
g4007
sg1440
g1440
sVbottled_hot_pepper_sauce
p4479
g392
sVtomatoes_and_green_chilies
p4480
g1520
sS'kiwi_fruits'
p4481
g663
sVJello_Instant_Vanilla_Pudding_Mix
p4482
g38
sS'frozen_sweet_corn'
p4483
g205
sS'sparkling_apple_cider'
p4484
g4484
sVjerusalem_artichoke
p4485
g3424
sS'mango_powder'
p4486
g4486
sS'mezcal'
p4487
g801
sg2593
g2593
sVsharp_cheddar_cheese
p4488
g275
sVHungarian_paprika
p4489
g1052
sVday_-_old_white_bread
p4490
g56
sS'sodium_-_free_seasoning'
p4491
g118
sVpeppermint_candy
p4492
g921
sVdaikon_radish
p4493
g4366
sg669
g669
sS'wasabi_powder'
p4494
g2944
sg1263
g1263
sVdiced_green_chilis
p4495
g68
sS'hearts_of_palm'
p4496
g4496
sS'ghee'
p4497
g4497
sVrice_paper_sheet
p4498
g1024
sg1616
g1616
sVsweet_onion
p4499
g7
sS'dried_blueberries'
p4500
g4500
sVpersimmon
p4501
g2610
sVwhole_boneless_skinless_chicken_breast
p4502
g344
sVhard_-_boiled_eggs
p4503
g1227
sS'yellow_rice'
p4504
g4504
sVpistachio_nut
p4505
g2059
sS'small_capers'
p4506
S'capers'
p4507
sg2687
g2687
sVcream_-_style_corn
p4508
g4224
sS'marzipan'
p4509
g4509
sS'egg_wash'
p4510
g4510
sVpoblano_pepper
p4511
g2204
sS'nonfat_dry_milk_powder'
p4512
g740
sVlemons_,_juice_of
p4513
g1409
sg212
g212
sS'stone_-_ground_yellow_cornmeal'
p4514
g265
sS'Greek_salad_dressing'
p4515
g4515
sS'guar_gum'
p4516
g4516
sg1340
g1340
sVdill_relish
p4517
g48
sg1667
g1667
sVsafflower_oil
p4518
g15
sS'white_flour'
p4519
g139
sg7
g7
sS'fresh_blueberries'
p4520
g2067
sS'buckwheat_flour'
p4521
g4521
sVsemisweet_chocolate_chunk
p4522
g63
sS'seedless_raspberry_preserves'
p4523
g21
sVfrozen_southern_style_hash_brown_potatoes
p4524
g986
sS'sausage_meat'
p4525
g280
sVsemisweet_chocolate_chunks
p4526
g63
sVdried_Italian_herb_seasoning
p4527
g347
sS'fat_free_Greek_yogurt'
p4528
g608
sVfrozen_artichoke_heart
p4529
g1574
sVroasted_garlic_cloves
p4530
g1263
sVgreen_zucchini
p4531
g111
sS'black_sesame_seeds'
p4532
g267
sVWesson_Oil
p4533
g15
sVcooked_elbow_macaroni
p4534
g88
sS'ears_of_corn'
p4535
g205
sVinstant_oats
p4536
g243
sS'lean_lamb'
p4537
g4537
sVcod_fish_fillet
p4538
g2339
sg3227
g3227
sS'toasted_wheat_germ'
p4539
g2696
sg1296
g1296
sS'cut_green_beans'
p4540
g228
sVextra_-_large_shrimp
p4541
g1179
sVcorn_oil
p4542
g15
sg1429
g1429
sVgreen_chili_pepper
p4543
g68
sVbeef_bouillon_cube
p4544
g562
sS'chocolate_instant_pudding'
p4545
g38
sS'red_chili_paste'
p4546
g3150
sVpureed_chipotle_chile
p4547
g26
sS'tiger_shrimp'
p4548
g1179
sg645
g645
sS'hot_cocoa'
p4549
g4549
sVsemisweet_chocolate_piece
p4550
g604
sS'whipped_cream_cheese'
p4551
g645
sVjalapeno
p4552
g68
sVdried_sour_cherries
p4553
g330
sS'green_enchilada_sauce'
p4554
g1809
sVcorn_tortilla_chips
p4555
g444
sg1278
g1278
sVdried_morels
p4556
g1755
sVtruffle
p4557
g2393
sS'frozen_corn'
p4558
g205
sVwhite_corn_syrup
p4559
g290
sVmedium_pasta_shells
p4560
g2146
sVinstant_coffee_powder
p4561
g1802
sg476
g476
sS'dark_corn_syrup'
p4562
g290
sg935
g935
sg377
g377
sVvegetable_juice_cocktail
p4563
g1294
sg292
g292
sS"Hellmann's_mayonnaise"
p4564
g1653
sS'fig_jam'
p4565
g4565
sVgreen_onion_top
p4566
g1377
sVcremini_mushroom
p4567
g369
sg793
g793
sVbrown_button_mushroom
p4568
g369
sS'paper'
p4569
g4569
sVprepared_sweet_-_and_-_sour_mix
p4570
g2959
sVwhite_pearl_onion
p4571
g1979
sS'maytag_blue_cheese'
p4572
g660
sS'salted_cashews'
p4573
g830
sS'fresh_yeast'
p4574
g52
sVpork_baby_back_ribs
p4575
g886
sg1988
g1988
sVbiscuit_mix
p4576
g1796
sVbulb_of_garlic
p4577
g1263
sVHershey_Bars
p4578
g431
sVthin_pizza_crust
p4579
g1944
sg189
g189
sS'peppermint_schnapps'
p4580
g1921
sVsuperfine_sugar
p4581
g93
sVbiscuit
p4582
g2973
sVquick_-_cooking_polenta
p4583
g2102
sS'mixed_peppercorns'
p4584
g722
sg2184
g2184
sS'soy_crumbles'
p4585
g4585
sVChambord_raspberry_liquor
p4586
g442
sVraw_potatoes
p4587
g5
sS'seeds'
p4588
g577
sVpuff_pastry_sheet
p4589
g811
sS'rotelle_pasta'
p4590
g276
sVburrito_-_size_flour_tortilla
p4591
g1551
sg1542
g1542
sS'whole_wheat_bread'
p4592
g56
sS'sun_-_dried_tomato_paste'
p4593
g1805
sS'dill_pickle_slices'
p4594
g48
sS'steel_cut_oats'
p4595
g243
sS'jelly_beans'
p4596
g4596
sS'hamburger_buns_with_sesame_seeds'
p4597
g237
sVchicken_breast_halve
p4598
g344
sS'citron'
p4599
g2503
sVold_-_fashioned_oatmeal
p4600
g243
sVshredded_cheddar_cheese
p4601
g275
sg1347
g1347
sS'vanilla_vodka'
p4602
g4602
sS'tenderloin'
p4603
g4603
sg369
g369
sVgold_tequila
p4604
g801
sVKRAFT_2_%_Milk_Shredded_Cheddar_Cheese
p4605
g275
sVroasted_red_pepper
p4606
g736
sVdried_apple
p4607
g2990
sVsweet_apples
p4608
g168
sVKaro_light_corn_syrup
p4609
g290
sS'sardines'
p4610
g4610
sg425
g425
sVturkey_breast_tenderloin
p4611
g190
sS'cracked_farro'
p4612
g4612
sS'custard'
p4613
g4613
sVbroccoli_coleslaw_mix
p4614
Vbroccoli_slaw_mix
p4615
sS'whole_mushrooms'
p4616
g369
sVdried_chives
p4617
g683
sVportabella_mushroom_cap
p4618
g593
sVquick_oats
p4619
g243
sS'pink_salmon'
p4620
g1216
sS'duck_fat'
p4621
g4621
sg1903
g1903
sS"Emeril's_Original_Essence"
p4622
g4622
sVwhole_green_chilies
p4623
g68
sVseedless_raspberry_jam
p4624
g21
sVfresh_lump_crabmeat
p4625
g1582
sVPace_Picante_Sauce
p4626
g1225
sS'pickled_ginger'
p4627
g4627
sVbeet
p4628
g972
sValmond_meal
p4629
g705
sg613
g613
sVbing_cherry
p4630
g121
sg3150
g3150
sVflour_tortilla
p4631
g1551
sVGreek_olive
p4632
g153
sg568
g568
sS'gluten'
p4633
g4633
sVground_cinnamon
p4634
g1606
sS'mostaccioli_pasta'
p4635
g4635
sVvidalia_onion
p4636
g7
sS'Jello_gelatin'
p4637
g62
sg3123
g3123
sS'fresh_ricotta'
p4638
g192
sg2223
g2223
sS'all_purpose_Greek_seasoning'
p4639
g118
sVground_turkey_breast
p4640
g1202
sVbratwurst
p4641
g2893
sVself_-_rising_flour
p4642
g702
sVchicken_meat
p4643
g60
sg1280
g1280
sS'low_sodium_soy_sauce'
p4644
g184
sS'bocconcini'
p4645
g4645
sVblanched_slivered_almonds
p4646
g1895
sVpecorino_cheese
p4647
g1619
sVlime_,_zest_of
p4648
g1242
sVcoconut_flakes
p4649
g454
sS'pea_pods'
p4650
g4650
sVdry_basil
p4651
g987
sg695
g695
sS'giardiniera'
p4652
g4652
sS'flat_iron_steaks'
p4653
g271
sVseltzer_water
p4654
g1240
sg466
g466
sS'cake'
p4655
g4655
sVtaco_seasoning_mix
p4656
g118
sVself_rising_flour
p4657
g702
sS'yellow_hominy'
p4658
g1190
sVrabbits
p4659
g3871
sVsoda_water
p4660
g1240
sS'New_York_strip_steaks'
p4661
g271
sS'sirloin'
p4662
g775
sS'mild_chili_powder'
p4663
g115
sS'Miracle_Whip_Calorie_-_Wise'
p4664
g101
sS'whole_wheat_pastry_flour'
p4665
g139
sS'mint_chocolate_chips'
p4666
g63
sS'candy_covered_plain_chocolate_candies'
p4667
g4667
sS'canned_mushrooms'
p4668
g369
sg3506
g3506
sg2249
g2249
sS'dry_buttermilk'
p4669
g4669
sS'Grape_-_nuts_cereal'
p4670
g4670
sVcanned_whole_tomatoes
p4671
g217
sS'szechuan_peppercorns'
p4672
g722
sVpiquillo_pepper
p4673
g476
sVGreek_olives
p4674
g153
sVfresh_mozzarella_ball
p4675
g690
sVdried_rubbed_sage
p4676
g802
sS'taco_cheese'
p4677
g4677
sg2597
g2597
sV9_-_inch_pie_shells
p4678
g292
sVwhole_almonds
p4679
g1429
sS'mixed_herbs'
p4680
g189
sVextra_finely_granulated_sugar
p4681
g93
sVfryer_chicken
p4682
g60
sVItalian_bread
p4683
g3068
sg642
g642
sg4185
g4185
sVvanilla_pudding_mix
p4684
g38
sg253
g253
sVboneless_beef_cube
p4685
g104
sg604
g604
sS'veal_stock'
p4686
g250
sVfruit_pectin
p4687
g474
sVground_chipotle_chile_pepper
p4688
g26
sVpeanut_butter_sandwich_cookie
p4689
g3405
sVpart_-_skim_ricotta_cheese
p4690
g192
sVdried_guajillo_chilies
p4691
g66
sVspicy_brown_mustard
p4692
g2227
sVespresso_coffee
p4693
g1505
sS'dried_shiitake_mushrooms'
p4694
g1028
sS'boneless_ham'
p4695
g224
sS'mushroom_caps'
p4696
g1509
sg1613
g1613
sS'ouzo'
p4697
g4697
sVboston_lettuce_leaves
p4698
g408
sS'tasso'
p4699
g639
sVother_sweet_onion
p4700
g7
sS'egg_bread'
p4701
g4701
sg4507
g4507
sVdry_gin
p4702
g1324
sS'vegetable_soup_mix'
p4703
g4703
sS'canned_artichoke_hearts'
p4704
g1574
sVinstant_bouillon_granules
p4705
g394
sVthick_&_chunky_salsa
p4706
g392
sS'root_beer'
p4707
g4707
sg91
g91
sVseedless_oranges
p4708
g1200
sS'chunky_applesauce'
p4709
g3794
sg3327
g3327
sS'orange_,_juice_and_zest_of'
p4710
g423
sVkaffir_lime_leaf
p4711
g3059
sg1211
g1211
sV90_%_lean_ground_beef
p4712
g149
sVtoasted_almond
p4713
g1895
sS'corn_flake_crumbs'
p4714
g1811
sVprepared_graham_cracker_crust
p4715
g1882
sVinstant_pudding_mix
p4716
g38
sg4615
g4615
sVserrano_pepper
p4717
g68
sS'Wondra_Flour'
p4718
g139
sVcrawfish_tail
p4719
g40
s.